
partition0:     file format elf32-sparc


Disassembly of section .text:

40080000 <_sguest>:
40080000:	10 80 09 3a 	b  400824e8 <_start>
40080004:	01 00 00 00 	nop 
40080008:	01 00 00 00 	nop 
4008000c:	01 00 00 00 	nop 
40080010:	10 80 09 55 	b  40082564 <CommonTrapHandler>
40080014:	a6 10 20 01 	mov  1, %l3	! 1 <vector-0xff>
40080018:	01 00 00 00 	nop 
4008001c:	01 00 00 00 	nop 
40080020:	10 80 09 51 	b  40082564 <CommonTrapHandler>
40080024:	a6 10 20 02 	mov  2, %l3	! 2 <vector-0xfe>
40080028:	01 00 00 00 	nop 
4008002c:	01 00 00 00 	nop 
40080030:	10 80 09 4d 	b  40082564 <CommonTrapHandler>
40080034:	a6 10 20 03 	mov  3, %l3	! 3 <vector-0xfd>
40080038:	01 00 00 00 	nop 
4008003c:	01 00 00 00 	nop 
40080040:	10 80 09 49 	b  40082564 <CommonTrapHandler>
40080044:	a6 10 20 04 	mov  4, %l3	! 4 <vector-0xfc>
40080048:	01 00 00 00 	nop 
4008004c:	01 00 00 00 	nop 
40080050:	10 80 09 45 	b  40082564 <CommonTrapHandler>
40080054:	a6 10 20 05 	mov  5, %l3	! 5 <vector-0xfb>
40080058:	01 00 00 00 	nop 
4008005c:	01 00 00 00 	nop 
40080060:	10 80 09 41 	b  40082564 <CommonTrapHandler>
40080064:	a6 10 20 06 	mov  6, %l3	! 6 <vector-0xfa>
40080068:	01 00 00 00 	nop 
4008006c:	01 00 00 00 	nop 
40080070:	10 80 09 3d 	b  40082564 <CommonTrapHandler>
40080074:	a6 10 20 07 	mov  7, %l3	! 7 <vector-0xf9>
40080078:	01 00 00 00 	nop 
4008007c:	01 00 00 00 	nop 
40080080:	10 80 09 39 	b  40082564 <CommonTrapHandler>
40080084:	a6 10 20 08 	mov  8, %l3	! 8 <vector-0xf8>
40080088:	01 00 00 00 	nop 
4008008c:	01 00 00 00 	nop 
40080090:	10 80 09 35 	b  40082564 <CommonTrapHandler>
40080094:	a6 10 20 09 	mov  9, %l3	! 9 <vector-0xf7>
40080098:	01 00 00 00 	nop 
4008009c:	01 00 00 00 	nop 
400800a0:	10 80 09 31 	b  40082564 <CommonTrapHandler>
400800a4:	a6 10 20 0a 	mov  0xa, %l3	! a <vector-0xf6>
400800a8:	01 00 00 00 	nop 
400800ac:	01 00 00 00 	nop 
400800b0:	10 80 09 2d 	b  40082564 <CommonTrapHandler>
400800b4:	a6 10 20 0b 	mov  0xb, %l3	! b <vector-0xf5>
400800b8:	01 00 00 00 	nop 
400800bc:	01 00 00 00 	nop 
400800c0:	10 80 09 29 	b  40082564 <CommonTrapHandler>
400800c4:	a6 10 20 0c 	mov  0xc, %l3	! c <vector-0xf4>
400800c8:	01 00 00 00 	nop 
400800cc:	01 00 00 00 	nop 
400800d0:	10 80 09 25 	b  40082564 <CommonTrapHandler>
400800d4:	a6 10 20 0d 	mov  0xd, %l3	! d <vector-0xf3>
400800d8:	01 00 00 00 	nop 
400800dc:	01 00 00 00 	nop 
400800e0:	10 80 09 21 	b  40082564 <CommonTrapHandler>
400800e4:	a6 10 20 0e 	mov  0xe, %l3	! e <vector-0xf2>
400800e8:	01 00 00 00 	nop 
400800ec:	01 00 00 00 	nop 
400800f0:	10 80 09 1d 	b  40082564 <CommonTrapHandler>
400800f4:	a6 10 20 0f 	mov  0xf, %l3	! f <vector-0xf1>
400800f8:	01 00 00 00 	nop 
400800fc:	01 00 00 00 	nop 
40080100:	10 80 09 19 	b  40082564 <CommonTrapHandler>
40080104:	a6 10 20 10 	mov  0x10, %l3	! 10 <vector-0xf0>
40080108:	01 00 00 00 	nop 
4008010c:	01 00 00 00 	nop 
40080110:	10 80 09 15 	b  40082564 <CommonTrapHandler>
40080114:	a6 10 20 11 	mov  0x11, %l3	! 11 <vector-0xef>
40080118:	01 00 00 00 	nop 
4008011c:	01 00 00 00 	nop 
40080120:	10 80 09 11 	b  40082564 <CommonTrapHandler>
40080124:	a6 10 20 12 	mov  0x12, %l3	! 12 <vector-0xee>
40080128:	01 00 00 00 	nop 
4008012c:	01 00 00 00 	nop 
40080130:	10 80 09 0d 	b  40082564 <CommonTrapHandler>
40080134:	a6 10 20 13 	mov  0x13, %l3	! 13 <vector-0xed>
40080138:	01 00 00 00 	nop 
4008013c:	01 00 00 00 	nop 
40080140:	10 80 09 09 	b  40082564 <CommonTrapHandler>
40080144:	a6 10 20 14 	mov  0x14, %l3	! 14 <vector-0xec>
40080148:	01 00 00 00 	nop 
4008014c:	01 00 00 00 	nop 
40080150:	10 80 09 05 	b  40082564 <CommonTrapHandler>
40080154:	a6 10 20 15 	mov  0x15, %l3	! 15 <vector-0xeb>
40080158:	01 00 00 00 	nop 
4008015c:	01 00 00 00 	nop 
40080160:	10 80 09 01 	b  40082564 <CommonTrapHandler>
40080164:	a6 10 20 16 	mov  0x16, %l3	! 16 <vector-0xea>
40080168:	01 00 00 00 	nop 
4008016c:	01 00 00 00 	nop 
40080170:	10 80 08 fd 	b  40082564 <CommonTrapHandler>
40080174:	a6 10 20 17 	mov  0x17, %l3	! 17 <vector-0xe9>
40080178:	01 00 00 00 	nop 
4008017c:	01 00 00 00 	nop 
40080180:	10 80 08 f9 	b  40082564 <CommonTrapHandler>
40080184:	a6 10 20 18 	mov  0x18, %l3	! 18 <vector-0xe8>
40080188:	01 00 00 00 	nop 
4008018c:	01 00 00 00 	nop 
40080190:	10 80 08 f5 	b  40082564 <CommonTrapHandler>
40080194:	a6 10 20 19 	mov  0x19, %l3	! 19 <vector-0xe7>
40080198:	01 00 00 00 	nop 
4008019c:	01 00 00 00 	nop 
400801a0:	10 80 08 f1 	b  40082564 <CommonTrapHandler>
400801a4:	a6 10 20 1a 	mov  0x1a, %l3	! 1a <vector-0xe6>
400801a8:	01 00 00 00 	nop 
400801ac:	01 00 00 00 	nop 
400801b0:	10 80 08 ed 	b  40082564 <CommonTrapHandler>
400801b4:	a6 10 20 1b 	mov  0x1b, %l3	! 1b <vector-0xe5>
400801b8:	01 00 00 00 	nop 
400801bc:	01 00 00 00 	nop 
400801c0:	10 80 08 e9 	b  40082564 <CommonTrapHandler>
400801c4:	a6 10 20 1c 	mov  0x1c, %l3	! 1c <vector-0xe4>
400801c8:	01 00 00 00 	nop 
400801cc:	01 00 00 00 	nop 
400801d0:	10 80 08 e5 	b  40082564 <CommonTrapHandler>
400801d4:	a6 10 20 1d 	mov  0x1d, %l3	! 1d <vector-0xe3>
400801d8:	01 00 00 00 	nop 
400801dc:	01 00 00 00 	nop 
400801e0:	10 80 08 e1 	b  40082564 <CommonTrapHandler>
400801e4:	a6 10 20 1e 	mov  0x1e, %l3	! 1e <vector-0xe2>
400801e8:	01 00 00 00 	nop 
400801ec:	01 00 00 00 	nop 
400801f0:	10 80 08 dd 	b  40082564 <CommonTrapHandler>
400801f4:	a6 10 20 1f 	mov  0x1f, %l3	! 1f <vector-0xe1>
400801f8:	01 00 00 00 	nop 
400801fc:	01 00 00 00 	nop 
40080200:	10 80 08 d9 	b  40082564 <CommonTrapHandler>
40080204:	a6 10 20 20 	mov  0x20, %l3	! 20 <vector-0xe0>
40080208:	01 00 00 00 	nop 
4008020c:	01 00 00 00 	nop 
40080210:	10 80 08 d5 	b  40082564 <CommonTrapHandler>
40080214:	a6 10 20 21 	mov  0x21, %l3	! 21 <vector-0xdf>
40080218:	01 00 00 00 	nop 
4008021c:	01 00 00 00 	nop 
40080220:	10 80 08 d1 	b  40082564 <CommonTrapHandler>
40080224:	a6 10 20 22 	mov  0x22, %l3	! 22 <vector-0xde>
40080228:	01 00 00 00 	nop 
4008022c:	01 00 00 00 	nop 
40080230:	10 80 08 cd 	b  40082564 <CommonTrapHandler>
40080234:	a6 10 20 23 	mov  0x23, %l3	! 23 <vector-0xdd>
40080238:	01 00 00 00 	nop 
4008023c:	01 00 00 00 	nop 
40080240:	10 80 08 c9 	b  40082564 <CommonTrapHandler>
40080244:	a6 10 20 24 	mov  0x24, %l3	! 24 <vector-0xdc>
40080248:	01 00 00 00 	nop 
4008024c:	01 00 00 00 	nop 
40080250:	10 80 08 c5 	b  40082564 <CommonTrapHandler>
40080254:	a6 10 20 25 	mov  0x25, %l3	! 25 <vector-0xdb>
40080258:	01 00 00 00 	nop 
4008025c:	01 00 00 00 	nop 
40080260:	10 80 08 c1 	b  40082564 <CommonTrapHandler>
40080264:	a6 10 20 26 	mov  0x26, %l3	! 26 <vector-0xda>
40080268:	01 00 00 00 	nop 
4008026c:	01 00 00 00 	nop 
40080270:	10 80 08 bd 	b  40082564 <CommonTrapHandler>
40080274:	a6 10 20 27 	mov  0x27, %l3	! 27 <vector-0xd9>
40080278:	01 00 00 00 	nop 
4008027c:	01 00 00 00 	nop 
40080280:	10 80 08 b9 	b  40082564 <CommonTrapHandler>
40080284:	a6 10 20 28 	mov  0x28, %l3	! 28 <vector-0xd8>
40080288:	01 00 00 00 	nop 
4008028c:	01 00 00 00 	nop 
40080290:	10 80 08 b5 	b  40082564 <CommonTrapHandler>
40080294:	a6 10 20 29 	mov  0x29, %l3	! 29 <vector-0xd7>
40080298:	01 00 00 00 	nop 
4008029c:	01 00 00 00 	nop 
400802a0:	10 80 08 b1 	b  40082564 <CommonTrapHandler>
400802a4:	a6 10 20 2a 	mov  0x2a, %l3	! 2a <vector-0xd6>
400802a8:	01 00 00 00 	nop 
400802ac:	01 00 00 00 	nop 
400802b0:	10 80 08 ad 	b  40082564 <CommonTrapHandler>
400802b4:	a6 10 20 2b 	mov  0x2b, %l3	! 2b <vector-0xd5>
400802b8:	01 00 00 00 	nop 
400802bc:	01 00 00 00 	nop 
400802c0:	10 80 08 a9 	b  40082564 <CommonTrapHandler>
400802c4:	a6 10 20 2c 	mov  0x2c, %l3	! 2c <vector-0xd4>
400802c8:	01 00 00 00 	nop 
400802cc:	01 00 00 00 	nop 
400802d0:	10 80 08 a5 	b  40082564 <CommonTrapHandler>
400802d4:	a6 10 20 2d 	mov  0x2d, %l3	! 2d <vector-0xd3>
400802d8:	01 00 00 00 	nop 
400802dc:	01 00 00 00 	nop 
400802e0:	10 80 08 a1 	b  40082564 <CommonTrapHandler>
400802e4:	a6 10 20 2e 	mov  0x2e, %l3	! 2e <vector-0xd2>
400802e8:	01 00 00 00 	nop 
400802ec:	01 00 00 00 	nop 
400802f0:	10 80 08 9d 	b  40082564 <CommonTrapHandler>
400802f4:	a6 10 20 2f 	mov  0x2f, %l3	! 2f <vector-0xd1>
400802f8:	01 00 00 00 	nop 
400802fc:	01 00 00 00 	nop 
40080300:	10 80 08 99 	b  40082564 <CommonTrapHandler>
40080304:	a6 10 20 30 	mov  0x30, %l3	! 30 <vector-0xd0>
40080308:	01 00 00 00 	nop 
4008030c:	01 00 00 00 	nop 
40080310:	10 80 08 95 	b  40082564 <CommonTrapHandler>
40080314:	a6 10 20 31 	mov  0x31, %l3	! 31 <vector-0xcf>
40080318:	01 00 00 00 	nop 
4008031c:	01 00 00 00 	nop 
40080320:	10 80 08 91 	b  40082564 <CommonTrapHandler>
40080324:	a6 10 20 32 	mov  0x32, %l3	! 32 <vector-0xce>
40080328:	01 00 00 00 	nop 
4008032c:	01 00 00 00 	nop 
40080330:	10 80 08 8d 	b  40082564 <CommonTrapHandler>
40080334:	a6 10 20 33 	mov  0x33, %l3	! 33 <vector-0xcd>
40080338:	01 00 00 00 	nop 
4008033c:	01 00 00 00 	nop 
40080340:	10 80 08 89 	b  40082564 <CommonTrapHandler>
40080344:	a6 10 20 34 	mov  0x34, %l3	! 34 <vector-0xcc>
40080348:	01 00 00 00 	nop 
4008034c:	01 00 00 00 	nop 
40080350:	10 80 08 85 	b  40082564 <CommonTrapHandler>
40080354:	a6 10 20 35 	mov  0x35, %l3	! 35 <vector-0xcb>
40080358:	01 00 00 00 	nop 
4008035c:	01 00 00 00 	nop 
40080360:	10 80 08 81 	b  40082564 <CommonTrapHandler>
40080364:	a6 10 20 36 	mov  0x36, %l3	! 36 <vector-0xca>
40080368:	01 00 00 00 	nop 
4008036c:	01 00 00 00 	nop 
40080370:	10 80 08 7d 	b  40082564 <CommonTrapHandler>
40080374:	a6 10 20 37 	mov  0x37, %l3	! 37 <vector-0xc9>
40080378:	01 00 00 00 	nop 
4008037c:	01 00 00 00 	nop 
40080380:	10 80 08 79 	b  40082564 <CommonTrapHandler>
40080384:	a6 10 20 38 	mov  0x38, %l3	! 38 <vector-0xc8>
40080388:	01 00 00 00 	nop 
4008038c:	01 00 00 00 	nop 
40080390:	10 80 08 75 	b  40082564 <CommonTrapHandler>
40080394:	a6 10 20 39 	mov  0x39, %l3	! 39 <vector-0xc7>
40080398:	01 00 00 00 	nop 
4008039c:	01 00 00 00 	nop 
400803a0:	10 80 08 71 	b  40082564 <CommonTrapHandler>
400803a4:	a6 10 20 3a 	mov  0x3a, %l3	! 3a <vector-0xc6>
400803a8:	01 00 00 00 	nop 
400803ac:	01 00 00 00 	nop 
400803b0:	10 80 08 6d 	b  40082564 <CommonTrapHandler>
400803b4:	a6 10 20 3b 	mov  0x3b, %l3	! 3b <vector-0xc5>
400803b8:	01 00 00 00 	nop 
400803bc:	01 00 00 00 	nop 
400803c0:	10 80 08 69 	b  40082564 <CommonTrapHandler>
400803c4:	a6 10 20 3c 	mov  0x3c, %l3	! 3c <vector-0xc4>
400803c8:	01 00 00 00 	nop 
400803cc:	01 00 00 00 	nop 
400803d0:	10 80 08 65 	b  40082564 <CommonTrapHandler>
400803d4:	a6 10 20 3d 	mov  0x3d, %l3	! 3d <vector-0xc3>
400803d8:	01 00 00 00 	nop 
400803dc:	01 00 00 00 	nop 
400803e0:	10 80 08 61 	b  40082564 <CommonTrapHandler>
400803e4:	a6 10 20 3e 	mov  0x3e, %l3	! 3e <vector-0xc2>
400803e8:	01 00 00 00 	nop 
400803ec:	01 00 00 00 	nop 
400803f0:	10 80 08 5d 	b  40082564 <CommonTrapHandler>
400803f4:	a6 10 20 3f 	mov  0x3f, %l3	! 3f <vector-0xc1>
400803f8:	01 00 00 00 	nop 
400803fc:	01 00 00 00 	nop 
40080400:	10 80 08 59 	b  40082564 <CommonTrapHandler>
40080404:	a6 10 20 40 	mov  0x40, %l3	! 40 <vector-0xc0>
40080408:	01 00 00 00 	nop 
4008040c:	01 00 00 00 	nop 
40080410:	10 80 08 55 	b  40082564 <CommonTrapHandler>
40080414:	a6 10 20 41 	mov  0x41, %l3	! 41 <vector-0xbf>
40080418:	01 00 00 00 	nop 
4008041c:	01 00 00 00 	nop 
40080420:	10 80 08 51 	b  40082564 <CommonTrapHandler>
40080424:	a6 10 20 42 	mov  0x42, %l3	! 42 <vector-0xbe>
40080428:	01 00 00 00 	nop 
4008042c:	01 00 00 00 	nop 
40080430:	10 80 08 4d 	b  40082564 <CommonTrapHandler>
40080434:	a6 10 20 43 	mov  0x43, %l3	! 43 <vector-0xbd>
40080438:	01 00 00 00 	nop 
4008043c:	01 00 00 00 	nop 
40080440:	10 80 08 49 	b  40082564 <CommonTrapHandler>
40080444:	a6 10 20 44 	mov  0x44, %l3	! 44 <vector-0xbc>
40080448:	01 00 00 00 	nop 
4008044c:	01 00 00 00 	nop 
40080450:	10 80 08 45 	b  40082564 <CommonTrapHandler>
40080454:	a6 10 20 45 	mov  0x45, %l3	! 45 <vector-0xbb>
40080458:	01 00 00 00 	nop 
4008045c:	01 00 00 00 	nop 
40080460:	10 80 08 41 	b  40082564 <CommonTrapHandler>
40080464:	a6 10 20 46 	mov  0x46, %l3	! 46 <vector-0xba>
40080468:	01 00 00 00 	nop 
4008046c:	01 00 00 00 	nop 
40080470:	10 80 08 3d 	b  40082564 <CommonTrapHandler>
40080474:	a6 10 20 47 	mov  0x47, %l3	! 47 <vector-0xb9>
40080478:	01 00 00 00 	nop 
4008047c:	01 00 00 00 	nop 
40080480:	10 80 08 39 	b  40082564 <CommonTrapHandler>
40080484:	a6 10 20 48 	mov  0x48, %l3	! 48 <vector-0xb8>
40080488:	01 00 00 00 	nop 
4008048c:	01 00 00 00 	nop 
40080490:	10 80 08 35 	b  40082564 <CommonTrapHandler>
40080494:	a6 10 20 49 	mov  0x49, %l3	! 49 <vector-0xb7>
40080498:	01 00 00 00 	nop 
4008049c:	01 00 00 00 	nop 
400804a0:	10 80 08 31 	b  40082564 <CommonTrapHandler>
400804a4:	a6 10 20 4a 	mov  0x4a, %l3	! 4a <vector-0xb6>
400804a8:	01 00 00 00 	nop 
400804ac:	01 00 00 00 	nop 
400804b0:	10 80 08 2d 	b  40082564 <CommonTrapHandler>
400804b4:	a6 10 20 4b 	mov  0x4b, %l3	! 4b <vector-0xb5>
400804b8:	01 00 00 00 	nop 
400804bc:	01 00 00 00 	nop 
400804c0:	10 80 08 29 	b  40082564 <CommonTrapHandler>
400804c4:	a6 10 20 4c 	mov  0x4c, %l3	! 4c <vector-0xb4>
400804c8:	01 00 00 00 	nop 
400804cc:	01 00 00 00 	nop 
400804d0:	10 80 08 25 	b  40082564 <CommonTrapHandler>
400804d4:	a6 10 20 4d 	mov  0x4d, %l3	! 4d <vector-0xb3>
400804d8:	01 00 00 00 	nop 
400804dc:	01 00 00 00 	nop 
400804e0:	10 80 08 21 	b  40082564 <CommonTrapHandler>
400804e4:	a6 10 20 4e 	mov  0x4e, %l3	! 4e <vector-0xb2>
400804e8:	01 00 00 00 	nop 
400804ec:	01 00 00 00 	nop 
400804f0:	10 80 08 1d 	b  40082564 <CommonTrapHandler>
400804f4:	a6 10 20 4f 	mov  0x4f, %l3	! 4f <vector-0xb1>
400804f8:	01 00 00 00 	nop 
400804fc:	01 00 00 00 	nop 
40080500:	10 80 08 19 	b  40082564 <CommonTrapHandler>
40080504:	a6 10 20 50 	mov  0x50, %l3	! 50 <vector-0xb0>
40080508:	01 00 00 00 	nop 
4008050c:	01 00 00 00 	nop 
40080510:	10 80 08 15 	b  40082564 <CommonTrapHandler>
40080514:	a6 10 20 51 	mov  0x51, %l3	! 51 <vector-0xaf>
40080518:	01 00 00 00 	nop 
4008051c:	01 00 00 00 	nop 
40080520:	10 80 08 11 	b  40082564 <CommonTrapHandler>
40080524:	a6 10 20 52 	mov  0x52, %l3	! 52 <vector-0xae>
40080528:	01 00 00 00 	nop 
4008052c:	01 00 00 00 	nop 
40080530:	10 80 08 0d 	b  40082564 <CommonTrapHandler>
40080534:	a6 10 20 53 	mov  0x53, %l3	! 53 <vector-0xad>
40080538:	01 00 00 00 	nop 
4008053c:	01 00 00 00 	nop 
40080540:	10 80 08 09 	b  40082564 <CommonTrapHandler>
40080544:	a6 10 20 54 	mov  0x54, %l3	! 54 <vector-0xac>
40080548:	01 00 00 00 	nop 
4008054c:	01 00 00 00 	nop 
40080550:	10 80 08 05 	b  40082564 <CommonTrapHandler>
40080554:	a6 10 20 55 	mov  0x55, %l3	! 55 <vector-0xab>
40080558:	01 00 00 00 	nop 
4008055c:	01 00 00 00 	nop 
40080560:	10 80 08 01 	b  40082564 <CommonTrapHandler>
40080564:	a6 10 20 56 	mov  0x56, %l3	! 56 <vector-0xaa>
40080568:	01 00 00 00 	nop 
4008056c:	01 00 00 00 	nop 
40080570:	10 80 07 fd 	b  40082564 <CommonTrapHandler>
40080574:	a6 10 20 57 	mov  0x57, %l3	! 57 <vector-0xa9>
40080578:	01 00 00 00 	nop 
4008057c:	01 00 00 00 	nop 
40080580:	10 80 07 f9 	b  40082564 <CommonTrapHandler>
40080584:	a6 10 20 58 	mov  0x58, %l3	! 58 <vector-0xa8>
40080588:	01 00 00 00 	nop 
4008058c:	01 00 00 00 	nop 
40080590:	10 80 07 f5 	b  40082564 <CommonTrapHandler>
40080594:	a6 10 20 59 	mov  0x59, %l3	! 59 <vector-0xa7>
40080598:	01 00 00 00 	nop 
4008059c:	01 00 00 00 	nop 
400805a0:	10 80 07 f1 	b  40082564 <CommonTrapHandler>
400805a4:	a6 10 20 5a 	mov  0x5a, %l3	! 5a <vector-0xa6>
400805a8:	01 00 00 00 	nop 
400805ac:	01 00 00 00 	nop 
400805b0:	10 80 07 ed 	b  40082564 <CommonTrapHandler>
400805b4:	a6 10 20 5b 	mov  0x5b, %l3	! 5b <vector-0xa5>
400805b8:	01 00 00 00 	nop 
400805bc:	01 00 00 00 	nop 
400805c0:	10 80 07 e9 	b  40082564 <CommonTrapHandler>
400805c4:	a6 10 20 5c 	mov  0x5c, %l3	! 5c <vector-0xa4>
400805c8:	01 00 00 00 	nop 
400805cc:	01 00 00 00 	nop 
400805d0:	10 80 07 e5 	b  40082564 <CommonTrapHandler>
400805d4:	a6 10 20 5d 	mov  0x5d, %l3	! 5d <vector-0xa3>
400805d8:	01 00 00 00 	nop 
400805dc:	01 00 00 00 	nop 
400805e0:	10 80 07 e1 	b  40082564 <CommonTrapHandler>
400805e4:	a6 10 20 5e 	mov  0x5e, %l3	! 5e <vector-0xa2>
400805e8:	01 00 00 00 	nop 
400805ec:	01 00 00 00 	nop 
400805f0:	10 80 07 dd 	b  40082564 <CommonTrapHandler>
400805f4:	a6 10 20 5f 	mov  0x5f, %l3	! 5f <vector-0xa1>
400805f8:	01 00 00 00 	nop 
400805fc:	01 00 00 00 	nop 
40080600:	10 80 07 d9 	b  40082564 <CommonTrapHandler>
40080604:	a6 10 20 60 	mov  0x60, %l3	! 60 <vector-0xa0>
40080608:	01 00 00 00 	nop 
4008060c:	01 00 00 00 	nop 
40080610:	10 80 07 d5 	b  40082564 <CommonTrapHandler>
40080614:	a6 10 20 61 	mov  0x61, %l3	! 61 <vector-0x9f>
40080618:	01 00 00 00 	nop 
4008061c:	01 00 00 00 	nop 
40080620:	10 80 07 d1 	b  40082564 <CommonTrapHandler>
40080624:	a6 10 20 62 	mov  0x62, %l3	! 62 <vector-0x9e>
40080628:	01 00 00 00 	nop 
4008062c:	01 00 00 00 	nop 
40080630:	10 80 07 cd 	b  40082564 <CommonTrapHandler>
40080634:	a6 10 20 63 	mov  0x63, %l3	! 63 <vector-0x9d>
40080638:	01 00 00 00 	nop 
4008063c:	01 00 00 00 	nop 
40080640:	10 80 07 c9 	b  40082564 <CommonTrapHandler>
40080644:	a6 10 20 64 	mov  0x64, %l3	! 64 <vector-0x9c>
40080648:	01 00 00 00 	nop 
4008064c:	01 00 00 00 	nop 
40080650:	10 80 07 c5 	b  40082564 <CommonTrapHandler>
40080654:	a6 10 20 65 	mov  0x65, %l3	! 65 <vector-0x9b>
40080658:	01 00 00 00 	nop 
4008065c:	01 00 00 00 	nop 
40080660:	10 80 07 c1 	b  40082564 <CommonTrapHandler>
40080664:	a6 10 20 66 	mov  0x66, %l3	! 66 <vector-0x9a>
40080668:	01 00 00 00 	nop 
4008066c:	01 00 00 00 	nop 
40080670:	10 80 07 bd 	b  40082564 <CommonTrapHandler>
40080674:	a6 10 20 67 	mov  0x67, %l3	! 67 <vector-0x99>
40080678:	01 00 00 00 	nop 
4008067c:	01 00 00 00 	nop 
40080680:	10 80 07 b9 	b  40082564 <CommonTrapHandler>
40080684:	a6 10 20 68 	mov  0x68, %l3	! 68 <vector-0x98>
40080688:	01 00 00 00 	nop 
4008068c:	01 00 00 00 	nop 
40080690:	10 80 07 b5 	b  40082564 <CommonTrapHandler>
40080694:	a6 10 20 69 	mov  0x69, %l3	! 69 <vector-0x97>
40080698:	01 00 00 00 	nop 
4008069c:	01 00 00 00 	nop 
400806a0:	10 80 07 b1 	b  40082564 <CommonTrapHandler>
400806a4:	a6 10 20 6a 	mov  0x6a, %l3	! 6a <vector-0x96>
400806a8:	01 00 00 00 	nop 
400806ac:	01 00 00 00 	nop 
400806b0:	10 80 07 ad 	b  40082564 <CommonTrapHandler>
400806b4:	a6 10 20 6b 	mov  0x6b, %l3	! 6b <vector-0x95>
400806b8:	01 00 00 00 	nop 
400806bc:	01 00 00 00 	nop 
400806c0:	10 80 07 a9 	b  40082564 <CommonTrapHandler>
400806c4:	a6 10 20 6c 	mov  0x6c, %l3	! 6c <vector-0x94>
400806c8:	01 00 00 00 	nop 
400806cc:	01 00 00 00 	nop 
400806d0:	10 80 07 a5 	b  40082564 <CommonTrapHandler>
400806d4:	a6 10 20 6d 	mov  0x6d, %l3	! 6d <vector-0x93>
400806d8:	01 00 00 00 	nop 
400806dc:	01 00 00 00 	nop 
400806e0:	10 80 07 a1 	b  40082564 <CommonTrapHandler>
400806e4:	a6 10 20 6e 	mov  0x6e, %l3	! 6e <vector-0x92>
400806e8:	01 00 00 00 	nop 
400806ec:	01 00 00 00 	nop 
400806f0:	10 80 07 9d 	b  40082564 <CommonTrapHandler>
400806f4:	a6 10 20 6f 	mov  0x6f, %l3	! 6f <vector-0x91>
400806f8:	01 00 00 00 	nop 
400806fc:	01 00 00 00 	nop 
40080700:	10 80 07 99 	b  40082564 <CommonTrapHandler>
40080704:	a6 10 20 70 	mov  0x70, %l3	! 70 <vector-0x90>
40080708:	01 00 00 00 	nop 
4008070c:	01 00 00 00 	nop 
40080710:	10 80 07 95 	b  40082564 <CommonTrapHandler>
40080714:	a6 10 20 71 	mov  0x71, %l3	! 71 <vector-0x8f>
40080718:	01 00 00 00 	nop 
4008071c:	01 00 00 00 	nop 
40080720:	10 80 07 91 	b  40082564 <CommonTrapHandler>
40080724:	a6 10 20 72 	mov  0x72, %l3	! 72 <vector-0x8e>
40080728:	01 00 00 00 	nop 
4008072c:	01 00 00 00 	nop 
40080730:	10 80 07 8d 	b  40082564 <CommonTrapHandler>
40080734:	a6 10 20 73 	mov  0x73, %l3	! 73 <vector-0x8d>
40080738:	01 00 00 00 	nop 
4008073c:	01 00 00 00 	nop 
40080740:	10 80 07 89 	b  40082564 <CommonTrapHandler>
40080744:	a6 10 20 74 	mov  0x74, %l3	! 74 <vector-0x8c>
40080748:	01 00 00 00 	nop 
4008074c:	01 00 00 00 	nop 
40080750:	10 80 07 85 	b  40082564 <CommonTrapHandler>
40080754:	a6 10 20 75 	mov  0x75, %l3	! 75 <vector-0x8b>
40080758:	01 00 00 00 	nop 
4008075c:	01 00 00 00 	nop 
40080760:	10 80 07 81 	b  40082564 <CommonTrapHandler>
40080764:	a6 10 20 76 	mov  0x76, %l3	! 76 <vector-0x8a>
40080768:	01 00 00 00 	nop 
4008076c:	01 00 00 00 	nop 
40080770:	10 80 07 7d 	b  40082564 <CommonTrapHandler>
40080774:	a6 10 20 77 	mov  0x77, %l3	! 77 <vector-0x89>
40080778:	01 00 00 00 	nop 
4008077c:	01 00 00 00 	nop 
40080780:	10 80 07 79 	b  40082564 <CommonTrapHandler>
40080784:	a6 10 20 78 	mov  0x78, %l3	! 78 <vector-0x88>
40080788:	01 00 00 00 	nop 
4008078c:	01 00 00 00 	nop 
40080790:	10 80 07 75 	b  40082564 <CommonTrapHandler>
40080794:	a6 10 20 79 	mov  0x79, %l3	! 79 <vector-0x87>
40080798:	01 00 00 00 	nop 
4008079c:	01 00 00 00 	nop 
400807a0:	10 80 07 71 	b  40082564 <CommonTrapHandler>
400807a4:	a6 10 20 7a 	mov  0x7a, %l3	! 7a <vector-0x86>
400807a8:	01 00 00 00 	nop 
400807ac:	01 00 00 00 	nop 
400807b0:	10 80 07 6d 	b  40082564 <CommonTrapHandler>
400807b4:	a6 10 20 7b 	mov  0x7b, %l3	! 7b <vector-0x85>
400807b8:	01 00 00 00 	nop 
400807bc:	01 00 00 00 	nop 
400807c0:	10 80 07 69 	b  40082564 <CommonTrapHandler>
400807c4:	a6 10 20 7c 	mov  0x7c, %l3	! 7c <vector-0x84>
400807c8:	01 00 00 00 	nop 
400807cc:	01 00 00 00 	nop 
400807d0:	10 80 07 65 	b  40082564 <CommonTrapHandler>
400807d4:	a6 10 20 7d 	mov  0x7d, %l3	! 7d <vector-0x83>
400807d8:	01 00 00 00 	nop 
400807dc:	01 00 00 00 	nop 
400807e0:	10 80 07 61 	b  40082564 <CommonTrapHandler>
400807e4:	a6 10 20 7e 	mov  0x7e, %l3	! 7e <vector-0x82>
400807e8:	01 00 00 00 	nop 
400807ec:	01 00 00 00 	nop 
400807f0:	10 80 07 5d 	b  40082564 <CommonTrapHandler>
400807f4:	a6 10 20 7f 	mov  0x7f, %l3	! 7f <vector-0x81>
400807f8:	01 00 00 00 	nop 
400807fc:	01 00 00 00 	nop 
40080800:	10 80 07 59 	b  40082564 <CommonTrapHandler>
40080804:	a6 10 20 80 	mov  0x80, %l3	! 80 <vector-0x80>
40080808:	01 00 00 00 	nop 
4008080c:	01 00 00 00 	nop 
40080810:	10 80 07 55 	b  40082564 <CommonTrapHandler>
40080814:	a6 10 20 81 	mov  0x81, %l3	! 81 <vector-0x7f>
40080818:	01 00 00 00 	nop 
4008081c:	01 00 00 00 	nop 
40080820:	10 80 07 51 	b  40082564 <CommonTrapHandler>
40080824:	a6 10 20 82 	mov  0x82, %l3	! 82 <vector-0x7e>
40080828:	01 00 00 00 	nop 
4008082c:	01 00 00 00 	nop 
40080830:	10 80 07 4d 	b  40082564 <CommonTrapHandler>
40080834:	a6 10 20 83 	mov  0x83, %l3	! 83 <vector-0x7d>
40080838:	01 00 00 00 	nop 
4008083c:	01 00 00 00 	nop 
40080840:	10 80 07 49 	b  40082564 <CommonTrapHandler>
40080844:	a6 10 20 84 	mov  0x84, %l3	! 84 <vector-0x7c>
40080848:	01 00 00 00 	nop 
4008084c:	01 00 00 00 	nop 
40080850:	10 80 07 45 	b  40082564 <CommonTrapHandler>
40080854:	a6 10 20 85 	mov  0x85, %l3	! 85 <vector-0x7b>
40080858:	01 00 00 00 	nop 
4008085c:	01 00 00 00 	nop 
40080860:	10 80 07 41 	b  40082564 <CommonTrapHandler>
40080864:	a6 10 20 86 	mov  0x86, %l3	! 86 <vector-0x7a>
40080868:	01 00 00 00 	nop 
4008086c:	01 00 00 00 	nop 
40080870:	10 80 07 3d 	b  40082564 <CommonTrapHandler>
40080874:	a6 10 20 87 	mov  0x87, %l3	! 87 <vector-0x79>
40080878:	01 00 00 00 	nop 
4008087c:	01 00 00 00 	nop 
40080880:	10 80 07 39 	b  40082564 <CommonTrapHandler>
40080884:	a6 10 20 88 	mov  0x88, %l3	! 88 <vector-0x78>
40080888:	01 00 00 00 	nop 
4008088c:	01 00 00 00 	nop 
40080890:	10 80 07 35 	b  40082564 <CommonTrapHandler>
40080894:	a6 10 20 89 	mov  0x89, %l3	! 89 <vector-0x77>
40080898:	01 00 00 00 	nop 
4008089c:	01 00 00 00 	nop 
400808a0:	10 80 07 31 	b  40082564 <CommonTrapHandler>
400808a4:	a6 10 20 8a 	mov  0x8a, %l3	! 8a <vector-0x76>
400808a8:	01 00 00 00 	nop 
400808ac:	01 00 00 00 	nop 
400808b0:	10 80 07 2d 	b  40082564 <CommonTrapHandler>
400808b4:	a6 10 20 8b 	mov  0x8b, %l3	! 8b <vector-0x75>
400808b8:	01 00 00 00 	nop 
400808bc:	01 00 00 00 	nop 
400808c0:	10 80 07 29 	b  40082564 <CommonTrapHandler>
400808c4:	a6 10 20 8c 	mov  0x8c, %l3	! 8c <vector-0x74>
400808c8:	01 00 00 00 	nop 
400808cc:	01 00 00 00 	nop 
400808d0:	10 80 07 25 	b  40082564 <CommonTrapHandler>
400808d4:	a6 10 20 8d 	mov  0x8d, %l3	! 8d <vector-0x73>
400808d8:	01 00 00 00 	nop 
400808dc:	01 00 00 00 	nop 
400808e0:	10 80 07 21 	b  40082564 <CommonTrapHandler>
400808e4:	a6 10 20 8e 	mov  0x8e, %l3	! 8e <vector-0x72>
400808e8:	01 00 00 00 	nop 
400808ec:	01 00 00 00 	nop 
400808f0:	10 80 07 1d 	b  40082564 <CommonTrapHandler>
400808f4:	a6 10 20 8f 	mov  0x8f, %l3	! 8f <vector-0x71>
400808f8:	01 00 00 00 	nop 
400808fc:	01 00 00 00 	nop 
40080900:	10 80 07 19 	b  40082564 <CommonTrapHandler>
40080904:	a6 10 20 90 	mov  0x90, %l3	! 90 <vector-0x70>
40080908:	01 00 00 00 	nop 
4008090c:	01 00 00 00 	nop 
40080910:	10 80 07 15 	b  40082564 <CommonTrapHandler>
40080914:	a6 10 20 91 	mov  0x91, %l3	! 91 <vector-0x6f>
40080918:	01 00 00 00 	nop 
4008091c:	01 00 00 00 	nop 
40080920:	10 80 07 11 	b  40082564 <CommonTrapHandler>
40080924:	a6 10 20 92 	mov  0x92, %l3	! 92 <vector-0x6e>
40080928:	01 00 00 00 	nop 
4008092c:	01 00 00 00 	nop 
40080930:	10 80 07 0d 	b  40082564 <CommonTrapHandler>
40080934:	a6 10 20 93 	mov  0x93, %l3	! 93 <vector-0x6d>
40080938:	01 00 00 00 	nop 
4008093c:	01 00 00 00 	nop 
40080940:	10 80 07 09 	b  40082564 <CommonTrapHandler>
40080944:	a6 10 20 94 	mov  0x94, %l3	! 94 <vector-0x6c>
40080948:	01 00 00 00 	nop 
4008094c:	01 00 00 00 	nop 
40080950:	10 80 07 05 	b  40082564 <CommonTrapHandler>
40080954:	a6 10 20 95 	mov  0x95, %l3	! 95 <vector-0x6b>
40080958:	01 00 00 00 	nop 
4008095c:	01 00 00 00 	nop 
40080960:	10 80 07 01 	b  40082564 <CommonTrapHandler>
40080964:	a6 10 20 96 	mov  0x96, %l3	! 96 <vector-0x6a>
40080968:	01 00 00 00 	nop 
4008096c:	01 00 00 00 	nop 
40080970:	10 80 06 fd 	b  40082564 <CommonTrapHandler>
40080974:	a6 10 20 97 	mov  0x97, %l3	! 97 <vector-0x69>
40080978:	01 00 00 00 	nop 
4008097c:	01 00 00 00 	nop 
40080980:	10 80 06 f9 	b  40082564 <CommonTrapHandler>
40080984:	a6 10 20 98 	mov  0x98, %l3	! 98 <vector-0x68>
40080988:	01 00 00 00 	nop 
4008098c:	01 00 00 00 	nop 
40080990:	10 80 06 f5 	b  40082564 <CommonTrapHandler>
40080994:	a6 10 20 99 	mov  0x99, %l3	! 99 <vector-0x67>
40080998:	01 00 00 00 	nop 
4008099c:	01 00 00 00 	nop 
400809a0:	10 80 06 f1 	b  40082564 <CommonTrapHandler>
400809a4:	a6 10 20 9a 	mov  0x9a, %l3	! 9a <vector-0x66>
400809a8:	01 00 00 00 	nop 
400809ac:	01 00 00 00 	nop 
400809b0:	10 80 06 ed 	b  40082564 <CommonTrapHandler>
400809b4:	a6 10 20 9b 	mov  0x9b, %l3	! 9b <vector-0x65>
400809b8:	01 00 00 00 	nop 
400809bc:	01 00 00 00 	nop 
400809c0:	10 80 06 e9 	b  40082564 <CommonTrapHandler>
400809c4:	a6 10 20 9c 	mov  0x9c, %l3	! 9c <vector-0x64>
400809c8:	01 00 00 00 	nop 
400809cc:	01 00 00 00 	nop 
400809d0:	10 80 06 e5 	b  40082564 <CommonTrapHandler>
400809d4:	a6 10 20 9d 	mov  0x9d, %l3	! 9d <vector-0x63>
400809d8:	01 00 00 00 	nop 
400809dc:	01 00 00 00 	nop 
400809e0:	10 80 06 e1 	b  40082564 <CommonTrapHandler>
400809e4:	a6 10 20 9e 	mov  0x9e, %l3	! 9e <vector-0x62>
400809e8:	01 00 00 00 	nop 
400809ec:	01 00 00 00 	nop 
400809f0:	10 80 06 dd 	b  40082564 <CommonTrapHandler>
400809f4:	a6 10 20 9f 	mov  0x9f, %l3	! 9f <vector-0x61>
400809f8:	01 00 00 00 	nop 
400809fc:	01 00 00 00 	nop 
40080a00:	10 80 06 d9 	b  40082564 <CommonTrapHandler>
40080a04:	a6 10 20 a0 	mov  0xa0, %l3	! a0 <vector-0x60>
40080a08:	01 00 00 00 	nop 
40080a0c:	01 00 00 00 	nop 
40080a10:	10 80 06 d5 	b  40082564 <CommonTrapHandler>
40080a14:	a6 10 20 a1 	mov  0xa1, %l3	! a1 <vector-0x5f>
40080a18:	01 00 00 00 	nop 
40080a1c:	01 00 00 00 	nop 
40080a20:	10 80 06 d1 	b  40082564 <CommonTrapHandler>
40080a24:	a6 10 20 a2 	mov  0xa2, %l3	! a2 <vector-0x5e>
40080a28:	01 00 00 00 	nop 
40080a2c:	01 00 00 00 	nop 
40080a30:	10 80 06 cd 	b  40082564 <CommonTrapHandler>
40080a34:	a6 10 20 a3 	mov  0xa3, %l3	! a3 <vector-0x5d>
40080a38:	01 00 00 00 	nop 
40080a3c:	01 00 00 00 	nop 
40080a40:	10 80 06 c9 	b  40082564 <CommonTrapHandler>
40080a44:	a6 10 20 a4 	mov  0xa4, %l3	! a4 <vector-0x5c>
40080a48:	01 00 00 00 	nop 
40080a4c:	01 00 00 00 	nop 
40080a50:	10 80 06 c5 	b  40082564 <CommonTrapHandler>
40080a54:	a6 10 20 a5 	mov  0xa5, %l3	! a5 <vector-0x5b>
40080a58:	01 00 00 00 	nop 
40080a5c:	01 00 00 00 	nop 
40080a60:	10 80 06 c1 	b  40082564 <CommonTrapHandler>
40080a64:	a6 10 20 a6 	mov  0xa6, %l3	! a6 <vector-0x5a>
40080a68:	01 00 00 00 	nop 
40080a6c:	01 00 00 00 	nop 
40080a70:	10 80 06 bd 	b  40082564 <CommonTrapHandler>
40080a74:	a6 10 20 a7 	mov  0xa7, %l3	! a7 <vector-0x59>
40080a78:	01 00 00 00 	nop 
40080a7c:	01 00 00 00 	nop 
40080a80:	10 80 06 b9 	b  40082564 <CommonTrapHandler>
40080a84:	a6 10 20 a8 	mov  0xa8, %l3	! a8 <vector-0x58>
40080a88:	01 00 00 00 	nop 
40080a8c:	01 00 00 00 	nop 
40080a90:	10 80 06 b5 	b  40082564 <CommonTrapHandler>
40080a94:	a6 10 20 a9 	mov  0xa9, %l3	! a9 <vector-0x57>
40080a98:	01 00 00 00 	nop 
40080a9c:	01 00 00 00 	nop 
40080aa0:	10 80 06 b1 	b  40082564 <CommonTrapHandler>
40080aa4:	a6 10 20 aa 	mov  0xaa, %l3	! aa <vector-0x56>
40080aa8:	01 00 00 00 	nop 
40080aac:	01 00 00 00 	nop 
40080ab0:	10 80 06 ad 	b  40082564 <CommonTrapHandler>
40080ab4:	a6 10 20 ab 	mov  0xab, %l3	! ab <vector-0x55>
40080ab8:	01 00 00 00 	nop 
40080abc:	01 00 00 00 	nop 
40080ac0:	10 80 06 a9 	b  40082564 <CommonTrapHandler>
40080ac4:	a6 10 20 ac 	mov  0xac, %l3	! ac <vector-0x54>
40080ac8:	01 00 00 00 	nop 
40080acc:	01 00 00 00 	nop 
40080ad0:	10 80 06 a5 	b  40082564 <CommonTrapHandler>
40080ad4:	a6 10 20 ad 	mov  0xad, %l3	! ad <vector-0x53>
40080ad8:	01 00 00 00 	nop 
40080adc:	01 00 00 00 	nop 
40080ae0:	10 80 06 a1 	b  40082564 <CommonTrapHandler>
40080ae4:	a6 10 20 ae 	mov  0xae, %l3	! ae <vector-0x52>
40080ae8:	01 00 00 00 	nop 
40080aec:	01 00 00 00 	nop 
40080af0:	10 80 06 9d 	b  40082564 <CommonTrapHandler>
40080af4:	a6 10 20 af 	mov  0xaf, %l3	! af <vector-0x51>
40080af8:	01 00 00 00 	nop 
40080afc:	01 00 00 00 	nop 
40080b00:	10 80 06 99 	b  40082564 <CommonTrapHandler>
40080b04:	a6 10 20 b0 	mov  0xb0, %l3	! b0 <vector-0x50>
40080b08:	01 00 00 00 	nop 
40080b0c:	01 00 00 00 	nop 
40080b10:	10 80 06 95 	b  40082564 <CommonTrapHandler>
40080b14:	a6 10 20 b1 	mov  0xb1, %l3	! b1 <vector-0x4f>
40080b18:	01 00 00 00 	nop 
40080b1c:	01 00 00 00 	nop 
40080b20:	10 80 06 91 	b  40082564 <CommonTrapHandler>
40080b24:	a6 10 20 b2 	mov  0xb2, %l3	! b2 <vector-0x4e>
40080b28:	01 00 00 00 	nop 
40080b2c:	01 00 00 00 	nop 
40080b30:	10 80 06 8d 	b  40082564 <CommonTrapHandler>
40080b34:	a6 10 20 b3 	mov  0xb3, %l3	! b3 <vector-0x4d>
40080b38:	01 00 00 00 	nop 
40080b3c:	01 00 00 00 	nop 
40080b40:	10 80 06 89 	b  40082564 <CommonTrapHandler>
40080b44:	a6 10 20 b4 	mov  0xb4, %l3	! b4 <vector-0x4c>
40080b48:	01 00 00 00 	nop 
40080b4c:	01 00 00 00 	nop 
40080b50:	10 80 06 85 	b  40082564 <CommonTrapHandler>
40080b54:	a6 10 20 b5 	mov  0xb5, %l3	! b5 <vector-0x4b>
40080b58:	01 00 00 00 	nop 
40080b5c:	01 00 00 00 	nop 
40080b60:	10 80 06 81 	b  40082564 <CommonTrapHandler>
40080b64:	a6 10 20 b6 	mov  0xb6, %l3	! b6 <vector-0x4a>
40080b68:	01 00 00 00 	nop 
40080b6c:	01 00 00 00 	nop 
40080b70:	10 80 06 7d 	b  40082564 <CommonTrapHandler>
40080b74:	a6 10 20 b7 	mov  0xb7, %l3	! b7 <vector-0x49>
40080b78:	01 00 00 00 	nop 
40080b7c:	01 00 00 00 	nop 
40080b80:	10 80 06 79 	b  40082564 <CommonTrapHandler>
40080b84:	a6 10 20 b8 	mov  0xb8, %l3	! b8 <vector-0x48>
40080b88:	01 00 00 00 	nop 
40080b8c:	01 00 00 00 	nop 
40080b90:	10 80 06 75 	b  40082564 <CommonTrapHandler>
40080b94:	a6 10 20 b9 	mov  0xb9, %l3	! b9 <vector-0x47>
40080b98:	01 00 00 00 	nop 
40080b9c:	01 00 00 00 	nop 
40080ba0:	10 80 06 71 	b  40082564 <CommonTrapHandler>
40080ba4:	a6 10 20 ba 	mov  0xba, %l3	! ba <vector-0x46>
40080ba8:	01 00 00 00 	nop 
40080bac:	01 00 00 00 	nop 
40080bb0:	10 80 06 6d 	b  40082564 <CommonTrapHandler>
40080bb4:	a6 10 20 bb 	mov  0xbb, %l3	! bb <vector-0x45>
40080bb8:	01 00 00 00 	nop 
40080bbc:	01 00 00 00 	nop 
40080bc0:	10 80 06 69 	b  40082564 <CommonTrapHandler>
40080bc4:	a6 10 20 bc 	mov  0xbc, %l3	! bc <vector-0x44>
40080bc8:	01 00 00 00 	nop 
40080bcc:	01 00 00 00 	nop 
40080bd0:	10 80 06 65 	b  40082564 <CommonTrapHandler>
40080bd4:	a6 10 20 bd 	mov  0xbd, %l3	! bd <vector-0x43>
40080bd8:	01 00 00 00 	nop 
40080bdc:	01 00 00 00 	nop 
40080be0:	10 80 06 61 	b  40082564 <CommonTrapHandler>
40080be4:	a6 10 20 be 	mov  0xbe, %l3	! be <vector-0x42>
40080be8:	01 00 00 00 	nop 
40080bec:	01 00 00 00 	nop 
40080bf0:	10 80 06 5d 	b  40082564 <CommonTrapHandler>
40080bf4:	a6 10 20 bf 	mov  0xbf, %l3	! bf <vector-0x41>
40080bf8:	01 00 00 00 	nop 
40080bfc:	01 00 00 00 	nop 
40080c00:	10 80 06 59 	b  40082564 <CommonTrapHandler>
40080c04:	a6 10 20 c0 	mov  0xc0, %l3	! c0 <vector-0x40>
40080c08:	01 00 00 00 	nop 
40080c0c:	01 00 00 00 	nop 
40080c10:	10 80 06 55 	b  40082564 <CommonTrapHandler>
40080c14:	a6 10 20 c1 	mov  0xc1, %l3	! c1 <vector-0x3f>
40080c18:	01 00 00 00 	nop 
40080c1c:	01 00 00 00 	nop 
40080c20:	10 80 06 51 	b  40082564 <CommonTrapHandler>
40080c24:	a6 10 20 c2 	mov  0xc2, %l3	! c2 <vector-0x3e>
40080c28:	01 00 00 00 	nop 
40080c2c:	01 00 00 00 	nop 
40080c30:	10 80 06 4d 	b  40082564 <CommonTrapHandler>
40080c34:	a6 10 20 c3 	mov  0xc3, %l3	! c3 <vector-0x3d>
40080c38:	01 00 00 00 	nop 
40080c3c:	01 00 00 00 	nop 
40080c40:	10 80 06 49 	b  40082564 <CommonTrapHandler>
40080c44:	a6 10 20 c4 	mov  0xc4, %l3	! c4 <vector-0x3c>
40080c48:	01 00 00 00 	nop 
40080c4c:	01 00 00 00 	nop 
40080c50:	10 80 06 45 	b  40082564 <CommonTrapHandler>
40080c54:	a6 10 20 c5 	mov  0xc5, %l3	! c5 <vector-0x3b>
40080c58:	01 00 00 00 	nop 
40080c5c:	01 00 00 00 	nop 
40080c60:	10 80 06 41 	b  40082564 <CommonTrapHandler>
40080c64:	a6 10 20 c6 	mov  0xc6, %l3	! c6 <vector-0x3a>
40080c68:	01 00 00 00 	nop 
40080c6c:	01 00 00 00 	nop 
40080c70:	10 80 06 3d 	b  40082564 <CommonTrapHandler>
40080c74:	a6 10 20 c7 	mov  0xc7, %l3	! c7 <vector-0x39>
40080c78:	01 00 00 00 	nop 
40080c7c:	01 00 00 00 	nop 
40080c80:	10 80 06 39 	b  40082564 <CommonTrapHandler>
40080c84:	a6 10 20 c8 	mov  0xc8, %l3	! c8 <vector-0x38>
40080c88:	01 00 00 00 	nop 
40080c8c:	01 00 00 00 	nop 
40080c90:	10 80 06 35 	b  40082564 <CommonTrapHandler>
40080c94:	a6 10 20 c9 	mov  0xc9, %l3	! c9 <vector-0x37>
40080c98:	01 00 00 00 	nop 
40080c9c:	01 00 00 00 	nop 
40080ca0:	10 80 06 31 	b  40082564 <CommonTrapHandler>
40080ca4:	a6 10 20 ca 	mov  0xca, %l3	! ca <vector-0x36>
40080ca8:	01 00 00 00 	nop 
40080cac:	01 00 00 00 	nop 
40080cb0:	10 80 06 2d 	b  40082564 <CommonTrapHandler>
40080cb4:	a6 10 20 cb 	mov  0xcb, %l3	! cb <vector-0x35>
40080cb8:	01 00 00 00 	nop 
40080cbc:	01 00 00 00 	nop 
40080cc0:	10 80 06 29 	b  40082564 <CommonTrapHandler>
40080cc4:	a6 10 20 cc 	mov  0xcc, %l3	! cc <vector-0x34>
40080cc8:	01 00 00 00 	nop 
40080ccc:	01 00 00 00 	nop 
40080cd0:	10 80 06 25 	b  40082564 <CommonTrapHandler>
40080cd4:	a6 10 20 cd 	mov  0xcd, %l3	! cd <vector-0x33>
40080cd8:	01 00 00 00 	nop 
40080cdc:	01 00 00 00 	nop 
40080ce0:	10 80 06 21 	b  40082564 <CommonTrapHandler>
40080ce4:	a6 10 20 ce 	mov  0xce, %l3	! ce <vector-0x32>
40080ce8:	01 00 00 00 	nop 
40080cec:	01 00 00 00 	nop 
40080cf0:	10 80 06 1d 	b  40082564 <CommonTrapHandler>
40080cf4:	a6 10 20 cf 	mov  0xcf, %l3	! cf <vector-0x31>
40080cf8:	01 00 00 00 	nop 
40080cfc:	01 00 00 00 	nop 
40080d00:	10 80 06 19 	b  40082564 <CommonTrapHandler>
40080d04:	a6 10 20 d0 	mov  0xd0, %l3	! d0 <vector-0x30>
40080d08:	01 00 00 00 	nop 
40080d0c:	01 00 00 00 	nop 
40080d10:	10 80 06 15 	b  40082564 <CommonTrapHandler>
40080d14:	a6 10 20 d1 	mov  0xd1, %l3	! d1 <vector-0x2f>
40080d18:	01 00 00 00 	nop 
40080d1c:	01 00 00 00 	nop 
40080d20:	10 80 06 11 	b  40082564 <CommonTrapHandler>
40080d24:	a6 10 20 d2 	mov  0xd2, %l3	! d2 <vector-0x2e>
40080d28:	01 00 00 00 	nop 
40080d2c:	01 00 00 00 	nop 
40080d30:	10 80 06 0d 	b  40082564 <CommonTrapHandler>
40080d34:	a6 10 20 d3 	mov  0xd3, %l3	! d3 <vector-0x2d>
40080d38:	01 00 00 00 	nop 
40080d3c:	01 00 00 00 	nop 
40080d40:	10 80 06 09 	b  40082564 <CommonTrapHandler>
40080d44:	a6 10 20 d4 	mov  0xd4, %l3	! d4 <vector-0x2c>
40080d48:	01 00 00 00 	nop 
40080d4c:	01 00 00 00 	nop 
40080d50:	10 80 06 05 	b  40082564 <CommonTrapHandler>
40080d54:	a6 10 20 d5 	mov  0xd5, %l3	! d5 <vector-0x2b>
40080d58:	01 00 00 00 	nop 
40080d5c:	01 00 00 00 	nop 
40080d60:	10 80 06 01 	b  40082564 <CommonTrapHandler>
40080d64:	a6 10 20 d6 	mov  0xd6, %l3	! d6 <vector-0x2a>
40080d68:	01 00 00 00 	nop 
40080d6c:	01 00 00 00 	nop 
40080d70:	10 80 05 fd 	b  40082564 <CommonTrapHandler>
40080d74:	a6 10 20 d7 	mov  0xd7, %l3	! d7 <vector-0x29>
40080d78:	01 00 00 00 	nop 
40080d7c:	01 00 00 00 	nop 
40080d80:	10 80 05 f9 	b  40082564 <CommonTrapHandler>
40080d84:	a6 10 20 d8 	mov  0xd8, %l3	! d8 <vector-0x28>
40080d88:	01 00 00 00 	nop 
40080d8c:	01 00 00 00 	nop 
40080d90:	10 80 05 f5 	b  40082564 <CommonTrapHandler>
40080d94:	a6 10 20 d9 	mov  0xd9, %l3	! d9 <vector-0x27>
40080d98:	01 00 00 00 	nop 
40080d9c:	01 00 00 00 	nop 
40080da0:	10 80 05 f1 	b  40082564 <CommonTrapHandler>
40080da4:	a6 10 20 da 	mov  0xda, %l3	! da <vector-0x26>
40080da8:	01 00 00 00 	nop 
40080dac:	01 00 00 00 	nop 
40080db0:	10 80 05 ed 	b  40082564 <CommonTrapHandler>
40080db4:	a6 10 20 db 	mov  0xdb, %l3	! db <vector-0x25>
40080db8:	01 00 00 00 	nop 
40080dbc:	01 00 00 00 	nop 
40080dc0:	10 80 05 e9 	b  40082564 <CommonTrapHandler>
40080dc4:	a6 10 20 dc 	mov  0xdc, %l3	! dc <vector-0x24>
40080dc8:	01 00 00 00 	nop 
40080dcc:	01 00 00 00 	nop 
40080dd0:	10 80 05 e5 	b  40082564 <CommonTrapHandler>
40080dd4:	a6 10 20 dd 	mov  0xdd, %l3	! dd <vector-0x23>
40080dd8:	01 00 00 00 	nop 
40080ddc:	01 00 00 00 	nop 
40080de0:	10 80 05 e1 	b  40082564 <CommonTrapHandler>
40080de4:	a6 10 20 de 	mov  0xde, %l3	! de <vector-0x22>
40080de8:	01 00 00 00 	nop 
40080dec:	01 00 00 00 	nop 
40080df0:	10 80 05 dd 	b  40082564 <CommonTrapHandler>
40080df4:	a6 10 20 df 	mov  0xdf, %l3	! df <vector-0x21>
40080df8:	01 00 00 00 	nop 
40080dfc:	01 00 00 00 	nop 
40080e00:	10 80 05 d9 	b  40082564 <CommonTrapHandler>
40080e04:	a6 10 20 e0 	mov  0xe0, %l3	! e0 <vector-0x20>
40080e08:	01 00 00 00 	nop 
40080e0c:	01 00 00 00 	nop 
40080e10:	10 80 05 d5 	b  40082564 <CommonTrapHandler>
40080e14:	a6 10 20 e1 	mov  0xe1, %l3	! e1 <vector-0x1f>
40080e18:	01 00 00 00 	nop 
40080e1c:	01 00 00 00 	nop 
40080e20:	10 80 05 d1 	b  40082564 <CommonTrapHandler>
40080e24:	a6 10 20 e2 	mov  0xe2, %l3	! e2 <vector-0x1e>
40080e28:	01 00 00 00 	nop 
40080e2c:	01 00 00 00 	nop 
40080e30:	10 80 05 cd 	b  40082564 <CommonTrapHandler>
40080e34:	a6 10 20 e3 	mov  0xe3, %l3	! e3 <vector-0x1d>
40080e38:	01 00 00 00 	nop 
40080e3c:	01 00 00 00 	nop 
40080e40:	10 80 05 c9 	b  40082564 <CommonTrapHandler>
40080e44:	a6 10 20 e4 	mov  0xe4, %l3	! e4 <vector-0x1c>
40080e48:	01 00 00 00 	nop 
40080e4c:	01 00 00 00 	nop 
40080e50:	10 80 05 c5 	b  40082564 <CommonTrapHandler>
40080e54:	a6 10 20 e5 	mov  0xe5, %l3	! e5 <vector-0x1b>
40080e58:	01 00 00 00 	nop 
40080e5c:	01 00 00 00 	nop 
40080e60:	10 80 05 c1 	b  40082564 <CommonTrapHandler>
40080e64:	a6 10 20 e6 	mov  0xe6, %l3	! e6 <vector-0x1a>
40080e68:	01 00 00 00 	nop 
40080e6c:	01 00 00 00 	nop 
40080e70:	10 80 05 bd 	b  40082564 <CommonTrapHandler>
40080e74:	a6 10 20 e7 	mov  0xe7, %l3	! e7 <vector-0x19>
40080e78:	01 00 00 00 	nop 
40080e7c:	01 00 00 00 	nop 
40080e80:	10 80 05 b9 	b  40082564 <CommonTrapHandler>
40080e84:	a6 10 20 e8 	mov  0xe8, %l3	! e8 <vector-0x18>
40080e88:	01 00 00 00 	nop 
40080e8c:	01 00 00 00 	nop 
40080e90:	10 80 05 b5 	b  40082564 <CommonTrapHandler>
40080e94:	a6 10 20 e9 	mov  0xe9, %l3	! e9 <vector-0x17>
40080e98:	01 00 00 00 	nop 
40080e9c:	01 00 00 00 	nop 
40080ea0:	10 80 05 b1 	b  40082564 <CommonTrapHandler>
40080ea4:	a6 10 20 ea 	mov  0xea, %l3	! ea <vector-0x16>
40080ea8:	01 00 00 00 	nop 
40080eac:	01 00 00 00 	nop 
40080eb0:	10 80 05 ad 	b  40082564 <CommonTrapHandler>
40080eb4:	a6 10 20 eb 	mov  0xeb, %l3	! eb <vector-0x15>
40080eb8:	01 00 00 00 	nop 
40080ebc:	01 00 00 00 	nop 
40080ec0:	10 80 05 a9 	b  40082564 <CommonTrapHandler>
40080ec4:	a6 10 20 ec 	mov  0xec, %l3	! ec <vector-0x14>
40080ec8:	01 00 00 00 	nop 
40080ecc:	01 00 00 00 	nop 
40080ed0:	10 80 05 a5 	b  40082564 <CommonTrapHandler>
40080ed4:	a6 10 20 ed 	mov  0xed, %l3	! ed <vector-0x13>
40080ed8:	01 00 00 00 	nop 
40080edc:	01 00 00 00 	nop 
40080ee0:	10 80 05 a1 	b  40082564 <CommonTrapHandler>
40080ee4:	a6 10 20 ee 	mov  0xee, %l3	! ee <vector-0x12>
40080ee8:	01 00 00 00 	nop 
40080eec:	01 00 00 00 	nop 
40080ef0:	10 80 05 9d 	b  40082564 <CommonTrapHandler>
40080ef4:	a6 10 20 ef 	mov  0xef, %l3	! ef <vector-0x11>
40080ef8:	01 00 00 00 	nop 
40080efc:	01 00 00 00 	nop 
40080f00:	10 80 05 99 	b  40082564 <CommonTrapHandler>
40080f04:	a6 10 20 f0 	mov  0xf0, %l3	! f0 <vector-0x10>
40080f08:	01 00 00 00 	nop 
40080f0c:	01 00 00 00 	nop 
40080f10:	10 80 05 95 	b  40082564 <CommonTrapHandler>
40080f14:	a6 10 20 f1 	mov  0xf1, %l3	! f1 <vector-0xf>
40080f18:	01 00 00 00 	nop 
40080f1c:	01 00 00 00 	nop 
40080f20:	10 80 05 91 	b  40082564 <CommonTrapHandler>
40080f24:	a6 10 20 f2 	mov  0xf2, %l3	! f2 <vector-0xe>
40080f28:	01 00 00 00 	nop 
40080f2c:	01 00 00 00 	nop 
40080f30:	10 80 05 8d 	b  40082564 <CommonTrapHandler>
40080f34:	a6 10 20 f3 	mov  0xf3, %l3	! f3 <vector-0xd>
40080f38:	01 00 00 00 	nop 
40080f3c:	01 00 00 00 	nop 
40080f40:	10 80 05 89 	b  40082564 <CommonTrapHandler>
40080f44:	a6 10 20 f4 	mov  0xf4, %l3	! f4 <vector-0xc>
40080f48:	01 00 00 00 	nop 
40080f4c:	01 00 00 00 	nop 
40080f50:	10 80 05 85 	b  40082564 <CommonTrapHandler>
40080f54:	a6 10 20 f5 	mov  0xf5, %l3	! f5 <vector-0xb>
40080f58:	01 00 00 00 	nop 
40080f5c:	01 00 00 00 	nop 
40080f60:	10 80 05 81 	b  40082564 <CommonTrapHandler>
40080f64:	a6 10 20 f6 	mov  0xf6, %l3	! f6 <vector-0xa>
40080f68:	01 00 00 00 	nop 
40080f6c:	01 00 00 00 	nop 
40080f70:	10 80 05 7d 	b  40082564 <CommonTrapHandler>
40080f74:	a6 10 20 f7 	mov  0xf7, %l3	! f7 <vector-0x9>
40080f78:	01 00 00 00 	nop 
40080f7c:	01 00 00 00 	nop 
40080f80:	10 80 05 79 	b  40082564 <CommonTrapHandler>
40080f84:	a6 10 20 f8 	mov  0xf8, %l3	! f8 <vector-0x8>
40080f88:	01 00 00 00 	nop 
40080f8c:	01 00 00 00 	nop 
40080f90:	10 80 05 75 	b  40082564 <CommonTrapHandler>
40080f94:	a6 10 20 f9 	mov  0xf9, %l3	! f9 <vector-0x7>
40080f98:	01 00 00 00 	nop 
40080f9c:	01 00 00 00 	nop 
40080fa0:	10 80 05 71 	b  40082564 <CommonTrapHandler>
40080fa4:	a6 10 20 fa 	mov  0xfa, %l3	! fa <vector-0x6>
40080fa8:	01 00 00 00 	nop 
40080fac:	01 00 00 00 	nop 
40080fb0:	10 80 05 6d 	b  40082564 <CommonTrapHandler>
40080fb4:	a6 10 20 fb 	mov  0xfb, %l3	! fb <vector-0x5>
40080fb8:	01 00 00 00 	nop 
40080fbc:	01 00 00 00 	nop 
40080fc0:	10 80 05 69 	b  40082564 <CommonTrapHandler>
40080fc4:	a6 10 20 fc 	mov  0xfc, %l3	! fc <vector-0x4>
40080fc8:	01 00 00 00 	nop 
40080fcc:	01 00 00 00 	nop 
40080fd0:	10 80 05 65 	b  40082564 <CommonTrapHandler>
40080fd4:	a6 10 20 fd 	mov  0xfd, %l3	! fd <vector-0x3>
40080fd8:	01 00 00 00 	nop 
40080fdc:	01 00 00 00 	nop 
40080fe0:	10 80 05 61 	b  40082564 <CommonTrapHandler>
40080fe4:	a6 10 20 fe 	mov  0xfe, %l3	! fe <vector-0x2>
40080fe8:	01 00 00 00 	nop 
40080fec:	01 00 00 00 	nop 
40080ff0:	10 80 05 5d 	b  40082564 <CommonTrapHandler>
40080ff4:	a6 10 20 ff 	mov  0xff, %l3	! ff <vector-0x1>
40080ff8:	01 00 00 00 	nop 
40080ffc:	01 00 00 00 	nop 

40081000 <HwTimerHandler>:
40081000:	9d e3 bf 88 	save  %sp, -120, %sp
40081004:	92 07 bf f0 	add  %fp, -16, %o1
40081008:	40 00 00 ed 	call  400813bc <XM_get_time>
4008100c:	90 10 20 00 	clr  %o0
40081010:	92 07 bf e8 	add  %fp, -24, %o1
40081014:	40 00 00 ea 	call  400813bc <XM_get_time>
40081018:	90 10 20 01 	mov  1, %o0
4008101c:	13 00 03 d0 	sethi  %hi(0xf4000), %o1
40081020:	92 12 62 40 	or  %o1, 0x240, %o1	! f4240 <vector+0xf4140>
40081024:	40 00 01 54 	call  40081574 <XM_reload_watchdog>
40081028:	90 10 20 00 	clr  %o0
4008102c:	03 10 02 11 	sethi  %hi(0x40084400), %g1
40081030:	c4 00 63 44 	ld  [ %g1 + 0x344 ], %g2	! 40084744 <libXmParams>
40081034:	11 10 02 09 	sethi  %hi(0x40082400), %o0
40081038:	d2 00 a0 1c 	ld  [ %g2 + 0x1c ], %o1
4008103c:	40 00 04 b7 	call  40082318 <printf>
40081040:	90 12 22 68 	or  %o0, 0x268, %o0
40081044:	11 10 02 09 	sethi  %hi(0x40082400), %o0
40081048:	90 12 22 70 	or  %o0, 0x270, %o0	! 40082670 <XM_memory_copy+0x4c>
4008104c:	d2 07 bf f0 	ld  [ %fp + -16 ], %o1
40081050:	d4 07 bf f4 	ld  [ %fp + -12 ], %o2
40081054:	d6 07 bf e8 	ld  [ %fp + -24 ], %o3
40081058:	40 00 04 b0 	call  40082318 <printf>
4008105c:	d8 07 bf ec 	ld  [ %fp + -20 ], %o4
40081060:	05 10 02 11 	sethi  %hi(0x40084400), %g2
40081064:	c2 00 a3 40 	ld  [ %g2 + 0x340 ], %g1	! 40084740 <_sbss>
40081068:	82 00 60 01 	inc  %g1
4008106c:	c2 20 a3 40 	st  %g1, [ %g2 + 0x340 ]
40081070:	81 c7 e0 08 	ret 
40081074:	81 e8 00 00 	restore 

40081078 <PartitionMain>:
40081078:	9d e3 bf 88 	save  %sp, -120, %sp
4008107c:	27 10 02 11 	sethi  %hi(0x40084400), %l3
40081080:	c2 04 e3 44 	ld  [ %l3 + 0x344 ], %g1	! 40084744 <libXmParams>
40081084:	29 10 02 09 	sethi  %hi(0x40082400), %l4
40081088:	d2 00 60 1c 	ld  [ %g1 + 0x1c ], %o1
4008108c:	40 00 04 a3 	call  40082318 <printf>
40081090:	90 15 22 68 	or  %l4, 0x268, %o0
40081094:	11 10 02 09 	sethi  %hi(0x40082400), %o0
40081098:	40 00 04 a0 	call  40082318 <printf>
4008109c:	90 12 22 90 	or  %o0, 0x290, %o0	! 40082690 <XM_memory_copy+0x6c>
400810a0:	13 10 02 04 	sethi  %hi(0x40081000), %o1
400810a4:	92 12 60 00 	mov  %o1, %o1	! 40081000 <HwTimerHandler>
400810a8:	40 00 01 78 	call  40081688 <InstallTrapHandler>
400810ac:	90 10 20 e0 	mov  0xe0, %o0
400810b0:	90 10 20 05 	mov  5, %o0
400810b4:	91 d0 20 f1 	ta  0xf1
400810b8:	92 10 20 01 	mov  1, %o1
400810bc:	40 00 00 c9 	call  400813e0 <XM_clear_irqmask>
400810c0:	90 10 20 00 	clr  %o0
400810c4:	92 07 bf f0 	add  %fp, -16, %o1
400810c8:	40 00 00 bd 	call  400813bc <XM_get_time>
400810cc:	90 10 20 00 	clr  %o0
400810d0:	92 07 bf e8 	add  %fp, -24, %o1
400810d4:	40 00 00 ba 	call  400813bc <XM_get_time>
400810d8:	90 10 20 01 	mov  1, %o0
400810dc:	25 10 02 11 	sethi  %hi(0x40084400), %l2
400810e0:	c2 04 e3 44 	ld  [ %l3 + 0x344 ], %g1
400810e4:	c0 24 a3 40 	clr  [ %l2 + 0x340 ]
400810e8:	d2 00 60 1c 	ld  [ %g1 + 0x1c ], %o1
400810ec:	40 00 04 8b 	call  40082318 <printf>
400810f0:	90 15 22 68 	or  %l4, 0x268, %o0
400810f4:	11 10 02 09 	sethi  %hi(0x40082400), %o0
400810f8:	40 00 04 88 	call  40082318 <printf>
400810fc:	90 12 22 b0 	or  %o0, 0x2b0, %o0	! 400826b0 <XM_memory_copy+0x8c>
40081100:	23 00 03 d0 	sethi  %hi(0xf4000), %l1
40081104:	a2 14 62 40 	or  %l1, 0x240, %l1	! f4240 <vector+0xf4140>
40081108:	c4 1f bf f0 	ldd  [ %fp + -16 ], %g2
4008110c:	a0 10 20 00 	clr  %l0
40081110:	86 80 c0 11 	addcc  %g3, %l1, %g3
40081114:	84 40 80 10 	addx  %g2, %l0, %g2
40081118:	92 10 00 02 	mov  %g2, %o1
4008111c:	94 10 00 03 	mov  %g3, %o2
40081120:	90 10 20 00 	clr  %o0
40081124:	96 10 00 10 	mov  %l0, %o3
40081128:	40 00 00 ff 	call  40081524 <XM_set_timer>
4008112c:	98 10 00 11 	mov  %l1, %o4
40081130:	90 10 00 10 	mov  %l0, %o0
40081134:	40 00 01 10 	call  40081574 <XM_reload_watchdog>
40081138:	92 10 00 11 	mov  %l1, %o1
4008113c:	c2 04 a3 40 	ld  [ %l2 + 0x340 ], %g1
40081140:	80 a0 60 09 	cmp  %g1, 9
40081144:	04 bf ff fe 	ble  4008113c <PartitionMain+0xc4>
40081148:	c2 04 e3 44 	ld  [ %l3 + 0x344 ], %g1
4008114c:	d2 00 60 1c 	ld  [ %g1 + 0x1c ], %o1
40081150:	40 00 04 72 	call  40082318 <printf>
40081154:	90 15 22 68 	or  %l4, 0x268, %o0
40081158:	11 10 02 09 	sethi  %hi(0x40082400), %o0
4008115c:	40 00 04 6f 	call  40082318 <printf>
40081160:	90 12 22 d8 	or  %o0, 0x2d8, %o0	! 400826d8 <XM_memory_copy+0xb4>
40081164:	c2 04 e3 44 	ld  [ %l3 + 0x344 ], %g1
40081168:	40 00 00 39 	call  4008124c <XM_halt_partition>
4008116c:	d0 00 60 1c 	ld  [ %g1 + 0x1c ], %o0
40081170:	01 00 00 00 	nop 
40081174:	81 c7 e0 08 	ret 
40081178:	81 e8 00 00 	restore 

4008117c <init_libxm>:
#include <xm.h>

struct libXmParams libXmParams;

void init_libxm(partitionControlTable_t *partCtrlTab){
    libXmParams.partCtrlTab=partCtrlTab;
4008117c:	03 10 02 11 	sethi  %hi(0x40084400), %g1
40081180:	86 10 63 44 	or  %g1, 0x344, %g3	! 40084744 <libXmParams>
    libXmParams.partMemMap=(struct xmPhysicalMemMap *)((xmAddress_t)partCtrlTab+sizeof(partitionControlTable_t));
40081184:	84 02 21 0c 	add  %o0, 0x10c, %g2
40081188:	c4 20 e0 04 	st  %g2, [ %g3 + 4 ]
#include <xm.h>

struct libXmParams libXmParams;

void init_libxm(partitionControlTable_t *partCtrlTab){
    libXmParams.partCtrlTab=partCtrlTab;
4008118c:	d0 20 63 44 	st  %o0, [ %g1 + 0x344 ]
    libXmParams.partMemMap=(struct xmPhysicalMemMap *)((xmAddress_t)partCtrlTab+sizeof(partitionControlTable_t));
    libXmParams.commPortBitmap=(xmWord_t *)((xmAddress_t)libXmParams.partMemMap+partCtrlTab->noPhysicalMemAreas*sizeof(struct xmPhysicalMemMap));
40081190:	c2 02 20 2c 	ld  [ %o0 + 0x2c ], %g1
40081194:	83 28 60 05 	sll  %g1, 5, %g1
40081198:	84 00 80 01 	add  %g2, %g1, %g2
    init_arch_libxm();
4008119c:	c4 20 e0 08 	st  %g2, [ %g3 + 8 ]
400811a0:	82 13 c0 00 	mov  %o7, %g1
400811a4:	40 00 01 2b 	call  40081650 <init_arch_libxm>
400811a8:	9e 10 40 00 	mov  %g1, %o7
400811ac:	01 00 00 00 	nop 

400811b0 <XM_get_vcpuid>:
  - [30/03/2016: CP-250216-01] Add XM_reload_watchdog hypercall
*/

#include <xm.h>

__stdcall xmId_t XM_get_vcpuid(void) {
400811b0:	9d e3 bf 98 	save  %sp, -104, %sp
    xm_s32_t _r = -1;
    _XM_HCALL0(get_vcpuid_nr, _r);
400811b4:	b0 10 20 20 	mov  0x20, %i0
    return _r;
}
400811b8:	90 10 00 18 	mov  %i0, %o0
400811bc:	91 d0 20 f0 	ta  0xf0
400811c0:	b0 10 00 08 	mov  %o0, %i0
400811c4:	81 c7 e0 08 	ret 
400811c8:	81 e8 00 00 	restore 

400811cc <XM_halt_vcpu>:

xm_hcall1r(halt_vcpu, xm_u32_t, vcpuId);
400811cc:	9d e3 bf 98 	save  %sp, -104, %sp
400811d0:	82 10 20 1f 	mov  0x1f, %g1
400811d4:	90 10 00 01 	mov  %g1, %o0
400811d8:	92 10 00 18 	mov  %i0, %o1
400811dc:	91 d0 20 f0 	ta  0xf0
400811e0:	82 10 00 08 	mov  %o0, %g1
400811e4:	81 c7 e0 08 	ret 
400811e8:	91 e8 00 01 	restore  %g0, %g1, %o0

400811ec <XM_reset_vcpu>:
xm_hcall2r(reset_vcpu, xm_u32_t, vcpuId, xmAddress_t, entry);
400811ec:	9d e3 bf 98 	save  %sp, -104, %sp
400811f0:	82 10 20 1e 	mov  0x1e, %g1
400811f4:	90 10 00 01 	mov  %g1, %o0
400811f8:	92 10 00 18 	mov  %i0, %o1
400811fc:	94 10 00 19 	mov  %i1, %o2
40081200:	91 d0 20 f0 	ta  0xf0
40081204:	82 10 00 08 	mov  %o0, %g1
40081208:	81 c7 e0 08 	ret 
4008120c:	91 e8 00 01 	restore  %g0, %g1, %o0

40081210 <XM_halt_system>:

xm_hcall0r(halt_system);
40081210:	9d e3 bf 98 	save  %sp, -104, %sp
40081214:	b0 10 20 05 	mov  5, %i0
40081218:	90 10 00 18 	mov  %i0, %o0
4008121c:	91 d0 20 f0 	ta  0xf0
40081220:	b0 10 00 08 	mov  %o0, %i0
40081224:	81 c7 e0 08 	ret 
40081228:	81 e8 00 00 	restore 

4008122c <XM_reset_system>:
xm_hcall1r(reset_system, xm_u32_t, resetMode);
4008122c:	9d e3 bf 98 	save  %sp, -104, %sp
40081230:	82 10 20 06 	mov  6, %g1
40081234:	90 10 00 01 	mov  %g1, %o0
40081238:	92 10 00 18 	mov  %i0, %o1
4008123c:	91 d0 20 f0 	ta  0xf0
40081240:	82 10 00 08 	mov  %o0, %g1
40081244:	81 c7 e0 08 	ret 
40081248:	91 e8 00 01 	restore  %g0, %g1, %o0

4008124c <XM_halt_partition>:
xm_hcall1r(halt_partition, xm_u32_t, partitionId);
4008124c:	9d e3 bf 98 	save  %sp, -104, %sp
40081250:	82 10 20 00 	clr  %g1
40081254:	90 10 00 01 	mov  %g1, %o0
40081258:	92 10 00 18 	mov  %i0, %o1
4008125c:	91 d0 20 f0 	ta  0xf0
40081260:	82 10 00 08 	mov  %o0, %g1
40081264:	81 c7 e0 08 	ret 
40081268:	91 e8 00 01 	restore  %g0, %g1, %o0

4008126c <XM_suspend_partition>:
xm_hcall1r(suspend_partition, xm_u32_t, partitionId);
4008126c:	9d e3 bf 98 	save  %sp, -104, %sp
40081270:	82 10 20 01 	mov  1, %g1
40081274:	90 10 00 01 	mov  %g1, %o0
40081278:	92 10 00 18 	mov  %i0, %o1
4008127c:	91 d0 20 f0 	ta  0xf0
40081280:	82 10 00 08 	mov  %o0, %g1
40081284:	81 c7 e0 08 	ret 
40081288:	91 e8 00 01 	restore  %g0, %g1, %o0

4008128c <XM_resume_partition>:
xm_hcall1r(resume_partition, xm_u32_t, partitionId);
4008128c:	9d e3 bf 98 	save  %sp, -104, %sp
40081290:	82 10 20 02 	mov  2, %g1
40081294:	90 10 00 01 	mov  %g1, %o0
40081298:	92 10 00 18 	mov  %i0, %o1
4008129c:	91 d0 20 f0 	ta  0xf0
400812a0:	82 10 00 08 	mov  %o0, %g1
400812a4:	81 c7 e0 08 	ret 
400812a8:	91 e8 00 01 	restore  %g0, %g1, %o0

400812ac <XM_reset_partition>:
xm_hcall4r(reset_partition, xm_u32_t, partitionId, xmAddress_t, ePoint, xm_u32_t, resetMode, xm_u32_t, status);
400812ac:	9d e3 bf 98 	save  %sp, -104, %sp
400812b0:	82 10 20 03 	mov  3, %g1
400812b4:	90 10 00 01 	mov  %g1, %o0
400812b8:	92 10 00 18 	mov  %i0, %o1
400812bc:	94 10 00 19 	mov  %i1, %o2
400812c0:	96 10 00 1a 	mov  %i2, %o3
400812c4:	98 10 00 1b 	mov  %i3, %o4
400812c8:	91 d0 20 f0 	ta  0xf0
400812cc:	82 10 00 08 	mov  %o0, %g1
400812d0:	81 c7 e0 08 	ret 
400812d4:	91 e8 00 01 	restore  %g0, %g1, %o0

400812d8 <XM_shutdown_partition>:
xm_hcall1r(shutdown_partition, xm_u32_t, partitionId);
400812d8:	9d e3 bf 98 	save  %sp, -104, %sp
400812dc:	82 10 20 04 	mov  4, %g1
400812e0:	90 10 00 01 	mov  %g1, %o0
400812e4:	92 10 00 18 	mov  %i0, %o1
400812e8:	91 d0 20 f0 	ta  0xf0
400812ec:	82 10 00 08 	mov  %o0, %g1
400812f0:	81 c7 e0 08 	ret 
400812f4:	91 e8 00 01 	restore  %g0, %g1, %o0

400812f8 <XM_idle_self>:
xm_hcall0r(idle_self);
400812f8:	9d e3 bf 98 	save  %sp, -104, %sp
400812fc:	b0 10 20 07 	mov  7, %i0
40081300:	90 10 00 18 	mov  %i0, %o0
40081304:	91 d0 20 f0 	ta  0xf0
40081308:	b0 10 00 08 	mov  %o0, %i0
4008130c:	81 c7 e0 08 	ret 
40081310:	81 e8 00 00 	restore 

40081314 <XM_read_object>:
xm_hcall4r(read_object, xmObjDesc_t, objDesc, void *, buffer, xm_u32_t, size, xm_u32_t *, flags);
40081314:	9d e3 bf 98 	save  %sp, -104, %sp
40081318:	82 10 20 0a 	mov  0xa, %g1
4008131c:	90 10 00 01 	mov  %g1, %o0
40081320:	92 10 00 18 	mov  %i0, %o1
40081324:	94 10 00 19 	mov  %i1, %o2
40081328:	96 10 00 1a 	mov  %i2, %o3
4008132c:	98 10 00 1b 	mov  %i3, %o4
40081330:	91 d0 20 f0 	ta  0xf0
40081334:	82 10 00 08 	mov  %o0, %g1
40081338:	81 c7 e0 08 	ret 
4008133c:	91 e8 00 01 	restore  %g0, %g1, %o0

40081340 <XM_write_object>:
xm_hcall4r(write_object, xmObjDesc_t, objDesc, void *, buffer, xm_u32_t, size, xm_u32_t *, flags);
40081340:	9d e3 bf 98 	save  %sp, -104, %sp
40081344:	82 10 20 0b 	mov  0xb, %g1
40081348:	90 10 00 01 	mov  %g1, %o0
4008134c:	92 10 00 18 	mov  %i0, %o1
40081350:	94 10 00 19 	mov  %i1, %o2
40081354:	96 10 00 1a 	mov  %i2, %o3
40081358:	98 10 00 1b 	mov  %i3, %o4
4008135c:	91 d0 20 f0 	ta  0xf0
40081360:	82 10 00 08 	mov  %o0, %g1
40081364:	81 c7 e0 08 	ret 
40081368:	91 e8 00 01 	restore  %g0, %g1, %o0

4008136c <XM_ctrl_object>:
xm_hcall3r(ctrl_object, xmObjDesc_t, objDesc, xm_u32_t, cmd, void *, arg);
4008136c:	9d e3 bf 98 	save  %sp, -104, %sp
40081370:	82 10 20 0d 	mov  0xd, %g1
40081374:	90 10 00 01 	mov  %g1, %o0
40081378:	92 10 00 18 	mov  %i0, %o1
4008137c:	94 10 00 19 	mov  %i1, %o2
40081380:	96 10 00 1a 	mov  %i2, %o3
40081384:	91 d0 20 f0 	ta  0xf0
40081388:	82 10 00 08 	mov  %o0, %g1
4008138c:	81 c7 e0 08 	ret 
40081390:	91 e8 00 01 	restore  %g0, %g1, %o0

40081394 <XM_seek_object>:
xm_hcall3r(seek_object, xmObjDesc_t, traceStream, xm_u32_t, offset, xm_u32_t, whence);
40081394:	9d e3 bf 98 	save  %sp, -104, %sp
40081398:	82 10 20 0c 	mov  0xc, %g1
4008139c:	90 10 00 01 	mov  %g1, %o0
400813a0:	92 10 00 18 	mov  %i0, %o1
400813a4:	94 10 00 19 	mov  %i1, %o2
400813a8:	96 10 00 1a 	mov  %i2, %o3
400813ac:	91 d0 20 f0 	ta  0xf0
400813b0:	82 10 00 08 	mov  %o0, %g1
400813b4:	81 c7 e0 08 	ret 
400813b8:	91 e8 00 01 	restore  %g0, %g1, %o0

400813bc <XM_get_time>:
xm_hcall2r(get_time, xm_u32_t, clock_id, xmTime_t *, time);
400813bc:	9d e3 bf 98 	save  %sp, -104, %sp
400813c0:	82 10 20 08 	mov  8, %g1
400813c4:	90 10 00 01 	mov  %g1, %o0
400813c8:	92 10 00 18 	mov  %i0, %o1
400813cc:	94 10 00 19 	mov  %i1, %o2
400813d0:	91 d0 20 f0 	ta  0xf0
400813d4:	82 10 00 08 	mov  %o0, %g1
400813d8:	81 c7 e0 08 	ret 
400813dc:	91 e8 00 01 	restore  %g0, %g1, %o0

400813e0 <XM_clear_irqmask>:

xm_hcall2r(clear_irqmask, xm_u32_t, hwIrqsMask, xm_u32_t, extIrqsPend);
400813e0:	9d e3 bf 98 	save  %sp, -104, %sp
400813e4:	82 10 20 0e 	mov  0xe, %g1
400813e8:	90 10 00 01 	mov  %g1, %o0
400813ec:	92 10 00 18 	mov  %i0, %o1
400813f0:	94 10 00 19 	mov  %i1, %o2
400813f4:	91 d0 20 f0 	ta  0xf0
400813f8:	82 10 00 08 	mov  %o0, %g1
400813fc:	81 c7 e0 08 	ret 
40081400:	91 e8 00 01 	restore  %g0, %g1, %o0

40081404 <XM_set_irqmask>:
xm_hcall2r(set_irqmask, xm_u32_t, hwIrqsMask, xm_u32_t, extIrqsPend);
40081404:	9d e3 bf 98 	save  %sp, -104, %sp
40081408:	82 10 20 0f 	mov  0xf, %g1
4008140c:	90 10 00 01 	mov  %g1, %o0
40081410:	92 10 00 18 	mov  %i0, %o1
40081414:	94 10 00 19 	mov  %i1, %o2
40081418:	91 d0 20 f0 	ta  0xf0
4008141c:	82 10 00 08 	mov  %o0, %g1
40081420:	81 c7 e0 08 	ret 
40081424:	91 e8 00 01 	restore  %g0, %g1, %o0

40081428 <XM_set_irqpend>:
xm_hcall2r(set_irqpend, xm_u32_t, hwIrqMask, xm_u32_t, extIrqMask);
40081428:	9d e3 bf 98 	save  %sp, -104, %sp
4008142c:	82 10 20 10 	mov  0x10, %g1
40081430:	90 10 00 01 	mov  %g1, %o0
40081434:	92 10 00 18 	mov  %i0, %o1
40081438:	94 10 00 19 	mov  %i1, %o2
4008143c:	91 d0 20 f0 	ta  0xf0
40081440:	82 10 00 08 	mov  %o0, %g1
40081444:	81 c7 e0 08 	ret 
40081448:	91 e8 00 01 	restore  %g0, %g1, %o0

4008144c <XM_clear_irqpend>:
xm_hcall2r(clear_irqpend, xm_u32_t, hwIrqMask, xm_u32_t, extIrqMask);
4008144c:	9d e3 bf 98 	save  %sp, -104, %sp
40081450:	82 10 20 11 	mov  0x11, %g1
40081454:	90 10 00 01 	mov  %g1, %o0
40081458:	92 10 00 18 	mov  %i0, %o1
4008145c:	94 10 00 19 	mov  %i1, %o2
40081460:	91 d0 20 f0 	ta  0xf0
40081464:	82 10 00 08 	mov  %o0, %g1
40081468:	81 c7 e0 08 	ret 
4008146c:	91 e8 00 01 	restore  %g0, %g1, %o0

40081470 <XM_route_irq>:
xm_hcall3r(route_irq, xm_u32_t, type, xm_u32_t, irq, xm_u16_t, vector);
40081470:	9d e3 bf 98 	save  %sp, -104, %sp
40081474:	82 10 20 12 	mov  0x12, %g1
40081478:	90 10 00 01 	mov  %g1, %o0
4008147c:	92 10 00 18 	mov  %i0, %o1
40081480:	94 10 00 19 	mov  %i1, %o2
40081484:	96 10 00 1a 	mov  %i2, %o3
40081488:	91 d0 20 f0 	ta  0xf0
4008148c:	82 10 00 08 	mov  %o0, %g1
40081490:	81 c7 e0 08 	ret 
40081494:	91 e8 00 01 	restore  %g0, %g1, %o0

40081498 <XM_raise_ipvi>:
xm_hcall1r(raise_ipvi, xm_u8_t, no_ipvi);
40081498:	9d e3 bf 98 	save  %sp, -104, %sp
4008149c:	82 10 20 21 	mov  0x21, %g1
400814a0:	90 10 00 01 	mov  %g1, %o0
400814a4:	92 10 00 18 	mov  %i0, %o1
400814a8:	91 d0 20 f0 	ta  0xf0
400814ac:	82 10 00 08 	mov  %o0, %g1
400814b0:	81 c7 e0 08 	ret 
400814b4:	91 e8 00 01 	restore  %g0, %g1, %o0

400814b8 <XM_set_cache_state>:

xm_hcall2r(set_cache_state, xm_u32_t, cache, xm_u32_t, action);
400814b8:	9d e3 bf 98 	save  %sp, -104, %sp
400814bc:	82 10 20 13 	mov  0x13, %g1
400814c0:	90 10 00 01 	mov  %g1, %o0
400814c4:	92 10 00 18 	mov  %i0, %o1
400814c8:	94 10 00 19 	mov  %i1, %o2
400814cc:	91 d0 20 f0 	ta  0xf0
400814d0:	82 10 00 08 	mov  %o0, %g1
400814d4:	81 c7 e0 08 	ret 
400814d8:	91 e8 00 01 	restore  %g0, %g1, %o0

400814dc <XM_switch_sched_plan>:
xm_hcall2r(switch_sched_plan, xm_u32_t, newPlanId, xm_u32_t *, currentPlanId);
400814dc:	9d e3 bf 98 	save  %sp, -104, %sp
400814e0:	82 10 20 14 	mov  0x14, %g1
400814e4:	90 10 00 01 	mov  %g1, %o0
400814e8:	92 10 00 18 	mov  %i0, %o1
400814ec:	94 10 00 19 	mov  %i1, %o2
400814f0:	91 d0 20 f0 	ta  0xf0
400814f4:	82 10 00 08 	mov  %o0, %g1
400814f8:	81 c7 e0 08 	ret 
400814fc:	91 e8 00 01 	restore  %g0, %g1, %o0

40081500 <XM_get_gid_by_name>:

xm_hcall2r(get_gid_by_name, xm_u8_t *, name, xm_u32_t, entity);
40081500:	9d e3 bf 98 	save  %sp, -104, %sp
40081504:	82 10 20 15 	mov  0x15, %g1
40081508:	90 10 00 01 	mov  %g1, %o0
4008150c:	92 10 00 18 	mov  %i0, %o1
40081510:	94 10 00 19 	mov  %i1, %o2
40081514:	91 d0 20 f0 	ta  0xf0
40081518:	82 10 00 08 	mov  %o0, %g1
4008151c:	81 c7 e0 08 	ret 
40081520:	91 e8 00 01 	restore  %g0, %g1, %o0

40081524 <XM_set_timer>:

ASMLINK xm_s32_t XM_set_timer(xm_u32_t clock_id, xmTime_t abstime, xmTime_t interval) {
40081524:	9d e3 bf 98 	save  %sp, -104, %sp
40081528:	a8 10 00 19 	mov  %i1, %l4
4008152c:	aa 10 00 1a 	mov  %i2, %l5
40081530:	a4 10 00 1b 	mov  %i3, %l2
40081534:	a6 10 00 1c 	mov  %i4, %l3
    xm_s32_t _r = -1;
    _XM_HCALL5(clock_id, abstime, abstime<<32, interval, interval<<32, set_timer_nr, _r);
40081538:	a0 10 00 1a 	mov  %i2, %l0
4008153c:	a2 10 20 00 	clr  %l1
40081540:	84 10 00 1c 	mov  %i4, %g2
40081544:	86 10 20 00 	clr  %g3
40081548:	82 10 20 09 	mov  9, %g1
    return _r;
}
4008154c:	90 10 00 01 	mov  %g1, %o0
40081550:	92 10 00 18 	mov  %i0, %o1
40081554:	94 10 00 14 	mov  %l4, %o2
40081558:	96 10 00 10 	mov  %l0, %o3
4008155c:	98 10 00 12 	mov  %l2, %o4
40081560:	9a 10 00 02 	mov  %g2, %o5
40081564:	91 d0 20 f0 	ta  0xf0
40081568:	82 10 00 08 	mov  %o0, %g1
4008156c:	81 c7 e0 08 	ret 
40081570:	91 e8 00 01 	restore  %g0, %g1, %o0

40081574 <XM_reload_watchdog>:

ASMLINK xm_s32_t XM_reload_watchdog(xmTime_t budget)
{
40081574:	9d e3 bf 98 	save  %sp, -104, %sp
    xm_s32_t _r = -1;
    _XM_HCALL2(budget, budget << 32, reload_watchdog_nr, _r);
40081578:	84 10 00 19 	mov  %i1, %g2
4008157c:	86 10 20 00 	clr  %g3
40081580:	82 10 20 22 	mov  0x22, %g1
    return _r;
}
40081584:	90 10 00 01 	mov  %g1, %o0
40081588:	92 10 00 18 	mov  %i0, %o1
4008158c:	94 10 00 02 	mov  %g2, %o2
40081590:	91 d0 20 f0 	ta  0xf0
40081594:	82 10 00 08 	mov  %o0, %g1
40081598:	81 c7 e0 08 	ret 
4008159c:	91 e8 00 01 	restore  %g0, %g1, %o0

400815a0 <XM_sparc_inport>:

xm_hcall2r(sparc_inport, xm_u32_t, port, xm_u32_t *, value);
400815a0:	9d e3 bf 98 	save  %sp, -104, %sp
400815a4:	82 10 20 16 	mov  0x16, %g1
400815a8:	90 10 00 01 	mov  %g1, %o0
400815ac:	92 10 00 18 	mov  %i0, %o1
400815b0:	94 10 00 19 	mov  %i1, %o2
400815b4:	91 d0 20 f0 	ta  0xf0
400815b8:	82 10 00 08 	mov  %o0, %g1
400815bc:	81 c7 e0 08 	ret 
400815c0:	91 e8 00 01 	restore  %g0, %g1, %o0

400815c4 <XM_sparc_outport>:
xm_hcall2r(sparc_outport, xm_u32_t, port, xm_u32_t, value);
400815c4:	9d e3 bf 98 	save  %sp, -104, %sp
400815c8:	82 10 20 17 	mov  0x17, %g1
400815cc:	90 10 00 01 	mov  %g1, %o0
400815d0:	92 10 00 18 	mov  %i0, %o1
400815d4:	94 10 00 19 	mov  %i1, %o2
400815d8:	91 d0 20 f0 	ta  0xf0
400815dc:	82 10 00 08 	mov  %o0, %g1
400815e0:	81 c7 e0 08 	ret 
400815e4:	91 e8 00 01 	restore  %g0, %g1, %o0

400815e8 <XM_sparc_outport_sdp>:
xm_hcall3r(sparc_outport_sdp, xm_u8_t *, dst, xm_u8_t *, src, xm_u32_t, size);
400815e8:	9d e3 bf 98 	save  %sp, -104, %sp
400815ec:	82 10 20 1a 	mov  0x1a, %g1
400815f0:	90 10 00 01 	mov  %g1, %o0
400815f4:	92 10 00 18 	mov  %i0, %o1
400815f8:	94 10 00 19 	mov  %i1, %o2
400815fc:	96 10 00 1a 	mov  %i2, %o3
40081600:	91 d0 20 f0 	ta  0xf0
40081604:	82 10 00 08 	mov  %o0, %g1
40081608:	81 c7 e0 08 	ret 
4008160c:	91 e8 00 01 	restore  %g0, %g1, %o0

40081610 <XM_sparc_disable_sdp>:
xm_hcall1r(sparc_disable_sdp, xm_u32_t, chipSelect);
40081610:	9d e3 bf 98 	save  %sp, -104, %sp
40081614:	82 10 20 19 	mov  0x19, %g1
40081618:	90 10 00 01 	mov  %g1, %o0
4008161c:	92 10 00 18 	mov  %i0, %o1
40081620:	91 d0 20 f0 	ta  0xf0
40081624:	82 10 00 08 	mov  %o0, %g1
40081628:	81 c7 e0 08 	ret 
4008162c:	91 e8 00 01 	restore  %g0, %g1, %o0

40081630 <XM_sparc_write_tbr>:
#ifdef CONFIG_SPW_RTC
xm_hcall3r(sparc_outport_msg, xm_u32_t, port, struct ioOutPortMsg *, ioMsg, xm_u32_t, timeout);
#endif
xm_hcall1(sparc_write_tbr, xmWord_t, val);
40081630:	9d e3 bf 98 	save  %sp, -104, %sp
40081634:	82 10 20 18 	mov  0x18, %g1
40081638:	90 10 00 01 	mov  %g1, %o0
4008163c:	92 10 00 18 	mov  %i0, %o1
40081640:	91 d0 20 f0 	ta  0xf0
40081644:	82 10 00 08 	mov  %o0, %g1
40081648:	81 c7 e0 08 	ret 
4008164c:	81 e8 00 00 	restore 

40081650 <init_arch_libxm>:
 *     Read LICENSE.txt file for the license terms.
 */

#include <xm.h>

void init_arch_libxm(void) {
40081650:	81 c3 e0 08 	retl 
40081654:	01 00 00 00 	nop 

40081658 <UnexpectedTrap>:
#include <stdio.h>
#include <irqs.h>

trapHandler_t trapHandlersTab[TRAPTAB_LENGTH];

static void UnexpectedTrap(trapCtxt_t *ctxt) {
40081658:	86 10 00 08 	mov  %o0, %g3
static inline struct xmPhysicalMemMap *XM_get_partition_mmap(void) {    
    return libXmParams.partMemMap;
}

static inline partitionControlTable_t *XM_params_get_PCT(void) {
    return libXmParams.partCtrlTab;
4008165c:	03 10 02 11 	sethi  %hi(0x40084400), %g1
40081660:	c4 00 63 44 	ld  [ %g1 + 0x344 ], %g2	! 40084744 <libXmParams>

static inline struct xmPhysicalMemMap *XM_get_partition_mmap(void) {    
    return libXmParams.partMemMap;
}

static inline partitionControlTable_t *XM_params_get_PCT(void) {
40081664:	11 10 02 09 	sethi  %hi(0x40082400), %o0
40081668:	90 12 22 e8 	or  %o0, 0x2e8, %o0	! 400826e8 <XM_memory_copy+0xc4>
4008166c:	d2 00 a0 1c 	ld  [ %g2 + 0x1c ], %o1
40081670:	d6 00 e0 2c 	ld  [ %g3 + 0x2c ], %o3
40081674:	d4 00 e0 24 	ld  [ %g3 + 0x24 ], %o2
40081678:	82 13 c0 00 	mov  %o7, %g1
4008167c:	40 00 03 27 	call  40082318 <printf>
40081680:	9e 10 40 00 	mov  %g1, %o7
40081684:	01 00 00 00 	nop 

40081688 <InstallTrapHandler>:
    printf("[P%d] Unexpected trap 0x%x (pc: 0x%x)\n", XM_PARTITION_SELF, ctxt->irqNr, ctxt->pc);
}

xm_s32_t InstallTrapHandler(xm_s32_t trapNr, trapHandler_t handler) {
40081688:	82 10 00 08 	mov  %o0, %g1
    if (trapNr<0||trapNr>TRAPTAB_LENGTH)
4008168c:	80 a2 21 00 	cmp  %o0, 0x100
40081690:	18 80 00 11 	bgu  400816d4 <InstallTrapHandler+0x4c>
40081694:	90 10 3f ff 	mov  -1, %o0
        return -1;

    if (handler)
        trapHandlersTab[trapNr]=handler;
40081698:	85 28 60 02 	sll  %g1, 2, %g2

xm_s32_t InstallTrapHandler(xm_s32_t trapNr, trapHandler_t handler) {
    if (trapNr<0||trapNr>TRAPTAB_LENGTH)
        return -1;

    if (handler)
4008169c:	80 a2 60 00 	cmp  %o1, 0
400816a0:	02 80 00 07 	be  400816bc <InstallTrapHandler+0x34>
400816a4:	90 10 00 02 	mov  %g2, %o0
        trapHandlersTab[trapNr]=handler;
400816a8:	03 10 02 11 	sethi  %hi(0x40084400), %g1
400816ac:	82 10 63 50 	or  %g1, 0x350, %g1	! 40084750 <trapHandlersTab>
400816b0:	d2 20 40 02 	st  %o1, [ %g1 + %g2 ]
    else
        trapHandlersTab[trapNr]=UnexpectedTrap;
    return 0;
400816b4:	10 80 00 08 	b  400816d4 <InstallTrapHandler+0x4c>
400816b8:	90 10 20 00 	clr  %o0
        return -1;

    if (handler)
        trapHandlersTab[trapNr]=handler;
    else
        trapHandlersTab[trapNr]=UnexpectedTrap;
400816bc:	05 10 02 05 	sethi  %hi(0x40081400), %g2
400816c0:	03 10 02 11 	sethi  %hi(0x40084400), %g1
400816c4:	84 10 a2 58 	or  %g2, 0x258, %g2
400816c8:	82 10 63 50 	or  %g1, 0x350, %g1
400816cc:	10 bf ff fa 	b  400816b4 <InstallTrapHandler+0x2c>
400816d0:	c4 20 40 08 	st  %g2, [ %g1 + %o0 ]
400816d4:	81 c3 e0 08 	retl 
400816d8:	01 00 00 00 	nop 

400816dc <SetupIrqs>:
    return 0;
}

void SetupIrqs(void) {
400816dc:	9d e3 bf 98 	save  %sp, -104, %sp
400816e0:	03 10 02 11 	sethi  %hi(0x40084400), %g1
400816e4:	05 10 02 05 	sethi  %hi(0x40081400), %g2
400816e8:	86 10 63 50 	or  %g1, 0x350, %g3
400816ec:	84 10 a2 58 	or  %g2, 0x258, %g2
    xm_s32_t e;

    for (e=0; e<TRAPTAB_LENGTH; e++)
400816f0:	a0 10 20 00 	clr  %l0
        trapHandlersTab[e]=UnexpectedTrap;
400816f4:	83 2c 20 02 	sll  %l0, 2, %g1
}

void SetupIrqs(void) {
    xm_s32_t e;

    for (e=0; e<TRAPTAB_LENGTH; e++)
400816f8:	a0 04 20 01 	inc  %l0
400816fc:	80 a4 20 ff 	cmp  %l0, 0xff
40081700:	04 bf ff fd 	ble  400816f4 <SetupIrqs+0x18>
40081704:	c4 20 c0 01 	st  %g2, [ %g3 + %g1 ]
        trapHandlersTab[e]=UnexpectedTrap;

    for (e=0; e<XM_VT_EXT_MAX; e++) 
40081708:	a0 10 20 00 	clr  %l0
        XM_route_irq(XM_EXTIRQ_TYPE, e, 224+e);
4008170c:	94 04 20 e0 	add  %l0, 0xe0, %o2
40081710:	95 2a a0 10 	sll  %o2, 0x10, %o2
40081714:	92 10 00 10 	mov  %l0, %o1
40081718:	95 32 a0 10 	srl  %o2, 0x10, %o2
4008171c:	7f ff ff 55 	call  40081470 <XM_route_irq>
40081720:	90 10 20 02 	mov  2, %o0
    xm_s32_t e;

    for (e=0; e<TRAPTAB_LENGTH; e++)
        trapHandlersTab[e]=UnexpectedTrap;

    for (e=0; e<XM_VT_EXT_MAX; e++) 
40081724:	a0 04 20 01 	inc  %l0
40081728:	80 a4 20 1f 	cmp  %l0, 0x1f
4008172c:	04 bf ff f9 	ble  40081710 <SetupIrqs+0x34>
40081730:	94 04 20 e0 	add  %l0, 0xe0, %o2
40081734:	81 c7 e0 08 	ret 
40081738:	81 e8 00 00 	restore 
4008173c:	40 08 21 38 	call  40289c1c <_eguest+0x204ec4>
40081740:	40 08 21 84 	call  40289d50 <_eguest+0x204ff8>
40081744:	40 08 21 48 	call  40289c64 <_eguest+0x204f0c>
40081748:	40 08 21 48 	call  40289c68 <_eguest+0x204f10>
4008174c:	40 08 21 48 	call  40289c6c <_eguest+0x204f14>
40081750:	40 08 21 48 	call  40289c70 <_eguest+0x204f18>
40081754:	40 08 21 84 	call  40289d64 <_eguest+0x20500c>
40081758:	40 08 21 48 	call  40289c78 <_eguest+0x204f20>
4008175c:	40 08 21 48 	call  40289c7c <_eguest+0x204f24>
40081760:	40 08 21 48 	call  40289c80 <_eguest+0x204f28>
40081764:	40 08 21 48 	call  40289c84 <_eguest+0x204f2c>
40081768:	40 08 21 48 	call  40289c88 <_eguest+0x204f30>
4008176c:	40 08 21 48 	call  40289c8c <_eguest+0x204f34>
40081770:	40 08 21 48 	call  40289c90 <_eguest+0x204f38>
40081774:	40 08 21 48 	call  40289c94 <_eguest+0x204f3c>
40081778:	40 08 21 48 	call  40289c98 <_eguest+0x204f40>
4008177c:	40 08 21 d8 	call  40289edc <_eguest+0x205184>
40081780:	40 08 21 48 	call  40289ca0 <_eguest+0x204f48>
40081784:	40 08 21 88 	call  40289da4 <_eguest+0x20504c>
40081788:	40 08 21 48 	call  40289ca8 <_eguest+0x204f50>
4008178c:	40 08 21 48 	call  40289cac <_eguest+0x204f54>
40081790:	40 08 22 20 	call  4028a010 <_eguest+0x2052b8>
40081794:	40 08 21 48 	call  40289cb4 <_eguest+0x204f5c>
40081798:	40 08 21 48 	call  40289cb8 <_eguest+0x204f60>
4008179c:	40 08 21 48 	call  40289cbc <_eguest+0x204f64>
400817a0:	40 08 21 48 	call  40289cc0 <_eguest+0x204f68>
400817a4:	40 08 21 48 	call  40289cc4 <_eguest+0x204f6c>
400817a8:	40 08 21 48 	call  40289cc8 <_eguest+0x204f70>
400817ac:	40 08 21 48 	call  40289ccc <_eguest+0x204f74>
400817b0:	40 08 21 48 	call  40289cd0 <_eguest+0x204f78>
400817b4:	40 08 21 48 	call  40289cd4 <_eguest+0x204f7c>
400817b8:	40 08 21 48 	call  40289cd8 <_eguest+0x204f80>
400817bc:	40 08 21 38 	call  40289c9c <_eguest+0x204f44>
400817c0:	40 08 21 84 	call  40289dd0 <_eguest+0x205078>
400817c4:	40 08 21 48 	call  40289ce4 <_eguest+0x204f8c>
400817c8:	40 08 21 48 	call  40289ce8 <_eguest+0x204f90>
400817cc:	40 08 21 48 	call  40289cec <_eguest+0x204f94>
400817d0:	40 08 21 48 	call  40289cf0 <_eguest+0x204f98>
400817d4:	40 08 21 84 	call  40289de4 <_eguest+0x20508c>
400817d8:	40 08 21 48 	call  40289cf8 <_eguest+0x204fa0>
400817dc:	40 08 21 48 	call  40289cfc <_eguest+0x204fa4>
400817e0:	40 08 21 48 	call  40289d00 <_eguest+0x204fa8>
400817e4:	40 08 21 48 	call  40289d04 <_eguest+0x204fac>
400817e8:	40 08 21 48 	call  40289d08 <_eguest+0x204fb0>
400817ec:	40 08 21 48 	call  40289d0c <_eguest+0x204fb4>
400817f0:	40 08 21 48 	call  40289d10 <_eguest+0x204fb8>
400817f4:	40 08 21 48 	call  40289d14 <_eguest+0x204fbc>
400817f8:	40 08 21 48 	call  40289d18 <_eguest+0x204fc0>
400817fc:	40 08 21 d8 	call  40289f5c <_eguest+0x205204>
40081800:	40 08 21 48 	call  40289d20 <_eguest+0x204fc8>
40081804:	40 08 21 88 	call  40289e24 <_eguest+0x2050cc>
40081808:	40 08 21 48 	call  40289d28 <_eguest+0x204fd0>
4008180c:	40 08 21 48 	call  40289d2c <_eguest+0x204fd4>
40081810:	40 08 22 20 	call  4028a090 <_eguest+0x205338>

40081814 <divmod64>:
#define USE_UPPER // uncommenting this removes %C,%D,%I,%O,%S,%U,%X and %L..
// only lowercase format flags are used
#define PADDING					//SPACE and ZERO padding

static xm_u64_t divmod64(xm_u64_t numer, xm_u64_t denom, xm_u64_t *remain)
{
40081814:	9d e3 bf 98 	save  %sp, -104, %sp
40081818:	94 10 00 18 	mov  %i0, %o2
4008181c:	96 10 00 19 	mov  %i1, %o3
40081820:	9e 10 00 1c 	mov  %i4, %o7
    xm_u64_t quotient = 0, quotbit = 1;

    if (denom == 0) {
40081824:	80 96 80 1b 	orcc  %i2, %i3, %g0
// only lowercase format flags are used
#define PADDING					//SPACE and ZERO padding

static xm_u64_t divmod64(xm_u64_t numer, xm_u64_t denom, xm_u64_t *remain)
{
    xm_u64_t quotient = 0, quotbit = 1;
40081828:	90 10 20 00 	clr  %o0
4008182c:	92 10 20 00 	clr  %o1
40081830:	98 10 20 00 	clr  %o4
40081834:	9a 10 20 01 	mov  1, %o5

    if (denom == 0) {
        return 0;
40081838:	b0 10 20 00 	clr  %i0

static xm_u64_t divmod64(xm_u64_t numer, xm_u64_t denom, xm_u64_t *remain)
{
    xm_u64_t quotient = 0, quotbit = 1;

    if (denom == 0) {
4008183c:	02 80 00 4a 	be  40081964 <divmod64+0x150>
40081840:	b2 10 20 00 	clr  %i1
        return 0;
    }

    while (((xm_s64_t) denom >= 0) && (denom < numer)) {
        denom <<= 1;
40081844:	10 80 00 0c 	b  40081874 <divmod64+0x60>
40081848:	82 06 80 1a 	add  %i2, %i2, %g1
        quotbit <<= 1;
4008184c:	02 80 00 42 	be  40081954 <divmod64+0x140>
40081850:	80 a2 c0 1b 	cmp  %o3, %i3
40081854:	80 88 40 02 	btst  %g1, %g2
40081858:	22 80 00 28 	be,a   400818f8 <divmod64+0xe4>
4008185c:	85 2b 20 1f 	sll  %o4, 0x1f, %g2
    if (denom == 0) {
        return 0;
    }

    while (((xm_s64_t) denom >= 0) && (denom < numer)) {
        denom <<= 1;
40081860:	b4 10 00 18 	mov  %i0, %i2
40081864:	b6 10 00 19 	mov  %i1, %i3
        quotbit <<= 1;
40081868:	98 10 00 1c 	mov  %i4, %o4
4008186c:	9a 10 00 1d 	mov  %i5, %o5
    if (denom == 0) {
        return 0;
    }

    while (((xm_s64_t) denom >= 0) && (denom < numer)) {
        denom <<= 1;
40081870:	82 06 80 1a 	add  %i2, %i2, %g1
40081874:	87 36 e0 1f 	srl  %i3, 0x1f, %g3
        quotbit <<= 1;
40081878:	84 03 00 0c 	add  %o4, %o4, %g2
4008187c:	89 33 60 1f 	srl  %o5, 0x1f, %g4
    if (denom == 0) {
        return 0;
    }

    while (((xm_s64_t) denom >= 0) && (denom < numer)) {
        denom <<= 1;
40081880:	b0 10 c0 01 	or  %g3, %g1, %i0
        quotbit <<= 1;
40081884:	b8 11 00 02 	or  %g4, %g2, %i4
40081888:	82 38 00 1a 	xnor  %g0, %i2, %g1
    if (denom == 0) {
        return 0;
    }

    while (((xm_s64_t) denom >= 0) && (denom < numer)) {
        denom <<= 1;
4008188c:	b2 06 c0 1b 	add  %i3, %i3, %i1
        quotbit <<= 1;
40081890:	ba 03 40 0d 	add  %o5, %o5, %i5
40081894:	80 a2 80 1a 	cmp  %o2, %i2
40081898:	83 30 60 1f 	srl  %g1, 0x1f, %g1
4008189c:	08 bf ff ec 	bleu  4008184c <divmod64+0x38>
400818a0:	84 10 20 00 	clr  %g2
400818a4:	10 bf ff ec 	b  40081854 <divmod64+0x40>
400818a8:	84 10 20 01 	mov  1, %g2
        }
        denom >>= 1;
        quotbit >>= 1;
    }
    
    if (remain)
400818ac:	80 a3 e0 00 	cmp  %o7, 0
400818b0:	32 80 00 02 	bne,a   400818b8 <divmod64+0xa4>
400818b4:	d4 3b c0 00 	std  %o2, [ %o7 ]
        *remain = numer;
    
    return quotient;
400818b8:	b0 10 00 08 	mov  %o0, %i0
400818bc:	10 80 00 2a 	b  40081964 <divmod64+0x150>
400818c0:	b2 10 00 09 	mov  %o1, %i1
        denom <<= 1;
        quotbit <<= 1;
    }

    while (quotbit && (numer != 0)) {
        if (denom <= numer) {
400818c4:	18 80 00 07 	bgu  400818e0 <divmod64+0xcc>
400818c8:	ba 11 00 03 	or  %g4, %g3, %i5
            numer -= denom;
400818cc:	96 a2 c0 1b 	subcc  %o3, %i3, %o3
400818d0:	94 62 80 1a 	subx  %o2, %i2, %o2
            quotient += quotbit;
400818d4:	92 82 40 0d 	addcc  %o1, %o5, %o1
400818d8:	90 42 00 0c 	addx  %o0, %o4, %o0
        }
        denom >>= 1;
400818dc:	ba 11 00 03 	or  %g4, %g3, %i5
400818e0:	b9 36 a0 01 	srl  %i2, 1, %i4
400818e4:	b4 10 00 1c 	mov  %i4, %i2
400818e8:	b6 10 00 1d 	mov  %i5, %i3
        quotbit >>= 1;
400818ec:	98 10 00 18 	mov  %i0, %o4
400818f0:	9a 10 00 19 	mov  %i1, %o5
400818f4:	85 2b 20 1f 	sll  %o4, 0x1f, %g2
400818f8:	83 33 60 01 	srl  %o5, 1, %g1
400818fc:	b2 10 80 01 	or  %g2, %g1, %i1
    while (quotbit && (numer != 0)) {
        if (denom <= numer) {
            numer -= denom;
            quotient += quotbit;
        }
        denom >>= 1;
40081900:	89 2e a0 1f 	sll  %i2, 0x1f, %g4
40081904:	87 36 e0 01 	srl  %i3, 1, %g3
        quotbit >>= 1;
40081908:	b1 33 20 01 	srl  %o4, 1, %i0
4008190c:	80 93 00 0d 	orcc  %o4, %o5, %g0
40081910:	84 10 20 00 	clr  %g2
40081914:	02 80 00 03 	be  40081920 <divmod64+0x10c>
40081918:	82 10 20 00 	clr  %g1
4008191c:	84 10 20 01 	mov  1, %g2
40081920:	80 92 80 0b 	orcc  %o2, %o3, %g0
40081924:	32 80 00 02 	bne,a   4008192c <divmod64+0x118>
40081928:	82 10 20 01 	mov  1, %g1
4008192c:	80 88 80 01 	btst  %g2, %g1
40081930:	02 bf ff df 	be  400818ac <divmod64+0x98>
40081934:	80 a6 80 0a 	cmp  %i2, %o2
        denom <<= 1;
        quotbit <<= 1;
    }

    while (quotbit && (numer != 0)) {
        if (denom <= numer) {
40081938:	18 bf ff ea 	bgu  400818e0 <divmod64+0xcc>
4008193c:	ba 11 00 03 	or  %g4, %g3, %i5
40081940:	80 a6 80 0a 	cmp  %i2, %o2
40081944:	32 bf ff e3 	bne,a   400818d0 <divmod64+0xbc>
40081948:	96 a2 c0 1b 	subcc  %o3, %i3, %o3
4008194c:	10 bf ff de 	b  400818c4 <divmod64+0xb0>
40081950:	80 a6 c0 0b 	cmp  %i3, %o3
        return 0;
    }

    while (((xm_s64_t) denom >= 0) && (denom < numer)) {
        denom <<= 1;
        quotbit <<= 1;
40081954:	38 bf ff c0 	bgu,a   40081854 <divmod64+0x40>
40081958:	84 10 20 01 	mov  1, %g2
4008195c:	10 bf ff bf 	b  40081858 <divmod64+0x44>
40081960:	80 88 40 02 	btst  %g1, %g2
40081964:	81 c7 e0 08 	ret 
40081968:	81 e8 00 00 	restore 

4008196c <atoi>:
        }
    }
    return r;
}

xm_s32_t atoi(const char* s) {
4008196c:	9d e3 bf 98 	save  %sp, -104, %sp
    long int v=0;
40081970:	b4 10 20 00 	clr  %i2
40081974:	9e 10 20 01 	mov  1, %o7
    int sign=1;
    unsigned base;

    while ( *s == ' '  ||  (unsigned int)(*s - 9) < 5u){
        s++;
40081978:	c8 4e 00 00 	ldsb  [ %i0 ], %g4
4008197c:	82 19 20 20 	xor  %g4, 0x20, %g1
40081980:	f2 0e 00 00 	ldub  [ %i0 ], %i1
40081984:	80 a0 00 01 	cmp  %g0, %g1
40081988:	84 06 7f f7 	add  %i1, -9, %g2
4008198c:	86 60 3f ff 	subx  %g0, -1, %g3
40081990:	84 08 a0 ff 	and  %g2, 0xff, %g2
40081994:	80 a0 a0 05 	cmp  %g2, 5
40081998:	82 60 20 00 	subx  %g0, 0, %g1
4008199c:	82 08 60 01 	and  %g1, 1, %g1
400819a0:	80 90 c0 01 	orcc  %g3, %g1, %g0
400819a4:	32 bf ff f5 	bne,a   40081978 <atoi+0xc>
400819a8:	b0 06 20 01 	inc  %i0
    }

    switch (*s) {
400819ac:	80 a1 20 2b 	cmp  %g4, 0x2b
400819b0:	02 80 00 2e 	be  40081a68 <atoi+0xfc>
400819b4:	80 a1 20 2d 	cmp  %g4, 0x2d
400819b8:	02 80 00 2b 	be  40081a64 <atoi+0xf8>
400819bc:	83 2e 60 18 	sll  %i1, 0x18, %g1
        case '+':
            ++s;
    }
	
    base=10;
    if (*s == '0') {
400819c0:	83 38 60 18 	sra  %g1, 0x18, %g1
400819c4:	80 a0 60 30 	cmp  %g1, 0x30
400819c8:	02 80 00 2f 	be  40081a84 <atoi+0x118>
400819cc:	b8 10 20 0a 	mov  0xa, %i4
        s++;
    }

    while ((unsigned int) (*s - '0') < base){
        v = Mult32(v, base)+*s-'0';//v = v * base + *s - '0'; 
        ++s;
400819d0:	83 2e 60 18 	sll  %i1, 0x18, %g1
400819d4:	83 38 60 18 	sra  %g1, 0x18, %g1
400819d8:	82 00 7f d0 	add  %g1, -48, %g1
400819dc:	80 a0 40 1c 	cmp  %g1, %i4
400819e0:	1a 80 00 1d 	bcc  40081a54 <atoi+0xe8>
400819e4:	80 a3 ff ff 	cmp  %o7, -1
400819e8:	b6 10 20 01 	mov  1, %i3
    
    return quotient;
}

static unsigned int Mult32(unsigned int v, unsigned base) {
    unsigned int r = 0;
400819ec:	ba 10 20 00 	clr  %i5
    int e;
    for (e = 0; e<32; e++) {
400819f0:	10 80 00 05 	b  40081a04 <atoi+0x98>
400819f4:	86 10 20 00 	clr  %g3
400819f8:	80 a0 e0 1f 	cmp  %g3, 0x1f
400819fc:	14 80 00 0c 	bg  40081a2c <atoi+0xc0>
40081a00:	85 2e 60 18 	sll  %i1, 0x18, %g2
        if ((base & (1<<e)) == (1<<e)) {
40081a04:	83 2e c0 03 	sll  %i3, %g3, %g1
40081a08:	84 08 40 1c 	and  %g1, %i4, %g2
            r += (v << e);
40081a0c:	89 2e 80 03 	sll  %i2, %g3, %g4

static unsigned int Mult32(unsigned int v, unsigned base) {
    unsigned int r = 0;
    int e;
    for (e = 0; e<32; e++) {
        if ((base & (1<<e)) == (1<<e)) {
40081a10:	80 a0 80 01 	cmp  %g2, %g1
40081a14:	12 bf ff f9 	bne  400819f8 <atoi+0x8c>
40081a18:	86 00 e0 01 	inc  %g3
}

static unsigned int Mult32(unsigned int v, unsigned base) {
    unsigned int r = 0;
    int e;
    for (e = 0; e<32; e++) {
40081a1c:	80 a0 e0 1f 	cmp  %g3, 0x1f
40081a20:	04 bf ff f9 	ble  40081a04 <atoi+0x98>
40081a24:	ba 07 40 04 	add  %i5, %g4, %i5
        *remain = numer;
    
    return quotient;
}

static unsigned int Mult32(unsigned int v, unsigned base) {
40081a28:	85 2e 60 18 	sll  %i1, 0x18, %g2
        s++;
    }

    while ((unsigned int) (*s - '0') < base){
        v = Mult32(v, base)+*s-'0';//v = v * base + *s - '0'; 
        ++s;
40081a2c:	b0 06 20 01 	inc  %i0
        *remain = numer;
    
    return quotient;
}

static unsigned int Mult32(unsigned int v, unsigned base) {
40081a30:	85 38 a0 18 	sra  %g2, 0x18, %g2
        s++;
    }

    while ((unsigned int) (*s - '0') < base){
        v = Mult32(v, base)+*s-'0';//v = v * base + *s - '0'; 
        ++s;
40081a34:	c2 4e 00 00 	ldsb  [ %i0 ], %g1
        *remain = numer;
    
    return quotient;
}

static unsigned int Mult32(unsigned int v, unsigned base) {
40081a38:	84 07 40 02 	add  %i5, %g2, %g2
        s++;
    }

    while ((unsigned int) (*s - '0') < base){
        v = Mult32(v, base)+*s-'0';//v = v * base + *s - '0'; 
        ++s;
40081a3c:	82 00 7f d0 	add  %g1, -48, %g1
40081a40:	80 a0 40 1c 	cmp  %g1, %i4
        *remain = numer;
    
    return quotient;
}

static unsigned int Mult32(unsigned int v, unsigned base) {
40081a44:	b4 00 bf d0 	add  %g2, -48, %i2
        s++;
    }

    while ((unsigned int) (*s - '0') < base){
        v = Mult32(v, base)+*s-'0';//v = v * base + *s - '0'; 
        ++s;
40081a48:	0a bf ff e9 	bcs  400819ec <atoi+0x80>
40081a4c:	f2 0e 00 00 	ldub  [ %i0 ], %i1
    }

    if (sign==-1){
40081a50:	80 a3 ff ff 	cmp  %o7, -1
40081a54:	02 80 00 18 	be  40081ab4 <atoi+0x148>
40081a58:	b0 20 00 1a 	neg  %i2, %i0
        return -v;
    }
    return v;
40081a5c:	10 80 00 16 	b  40081ab4 <atoi+0x148>
40081a60:	b0 10 00 1a 	mov  %i2, %i0
        s++;
    }

    switch (*s) {
        case '-':
            sign=-1;
40081a64:	9e 10 3f ff 	mov  -1, %o7
        case '+':
            ++s;
40081a68:	b0 06 20 01 	inc  %i0
40081a6c:	f2 0e 00 00 	ldub  [ %i0 ], %i1
    }
	
    base=10;
    if (*s == '0') {
40081a70:	83 2e 60 18 	sll  %i1, 0x18, %g1
40081a74:	83 38 60 18 	sra  %g1, 0x18, %g1
40081a78:	80 a0 60 30 	cmp  %g1, 0x30
40081a7c:	12 bf ff d5 	bne  400819d0 <atoi+0x64>
40081a80:	b8 10 20 0a 	mov  0xa, %i4
        if (*(s+1) == 'x') { /* WARNING: assumes ascii. */
40081a84:	c2 4e 20 01 	ldsb  [ %i0 + 1 ], %g1
40081a88:	80 a0 60 78 	cmp  %g1, 0x78
40081a8c:	02 80 00 05 	be  40081aa0 <atoi+0x134>
40081a90:	b8 10 20 08 	mov  8, %i4
            base = 16;
        }
        else {
            base = 8;
        }
        s++;
40081a94:	b0 06 20 01 	inc  %i0
40081a98:	10 bf ff ce 	b  400819d0 <atoi+0x64>
40081a9c:	f2 0e 00 00 	ldub  [ %i0 ], %i1
    }
	
    base=10;
    if (*s == '0') {
        if (*(s+1) == 'x') { /* WARNING: assumes ascii. */
            s++;
40081aa0:	b0 06 20 01 	inc  %i0
            base = 16;
        }
        else {
            base = 8;
        }
        s++;
40081aa4:	b0 06 20 01 	inc  %i0
	
    base=10;
    if (*s == '0') {
        if (*(s+1) == 'x') { /* WARNING: assumes ascii. */
            s++;
            base = 16;
40081aa8:	b8 10 20 10 	mov  0x10, %i4
40081aac:	10 bf ff c9 	b  400819d0 <atoi+0x64>
40081ab0:	f2 0e 00 00 	ldub  [ %i0 ], %i1
40081ab4:	81 c7 e0 08 	ret 
40081ab8:	81 e8 00 00 	restore 

40081abc <strchr>:
        return -v;
    }
    return v;
}

char *strchr(const char *t, int c) {
40081abc:	93 2a 60 18 	sll  %o1, 0x18, %o1
40081ac0:	10 80 00 04 	b  40081ad0 <strchr+0x14>
40081ac4:	93 3a 60 18 	sra  %o1, 0x18, %o1
    register char ch;

    ch = c;
    for (;;) {
        if (*t == ch) break; if (!*t) return 0; ++t;
40081ac8:	02 80 00 07 	be  40081ae4 <strchr+0x28>
40081acc:	90 02 20 01 	inc  %o0
40081ad0:	c2 4a 00 00 	ldsb  [ %o0 ], %g1
40081ad4:	80 a0 40 09 	cmp  %g1, %o1
40081ad8:	12 bf ff fc 	bne  40081ac8 <strchr+0xc>
40081adc:	80 a0 60 00 	cmp  %g1, 0
40081ae0:	30 80 00 02 	b,a   40081ae8 <strchr+0x2c>
40081ae4:	90 10 20 00 	clr  %o0
40081ae8:	81 c3 e0 08 	retl 
40081aec:	01 00 00 00 	nop 

40081af0 <strlen>:
    return 0;
}

unsigned int strlen(const char *s) {
    unsigned int i;
    if (!s) return 0;
40081af0:	80 a2 20 00 	cmp  %o0, 0
40081af4:	02 80 00 0c 	be  40081b24 <strlen+0x34>
40081af8:	82 10 20 00 	clr  %g1
    for (i = 0; *s; ++s) ++i;
40081afc:	c2 4a 00 00 	ldsb  [ %o0 ], %g1
40081b00:	80 a0 60 00 	cmp  %g1, 0
40081b04:	02 80 00 07 	be  40081b20 <strlen+0x30>
40081b08:	84 10 20 00 	clr  %g2
40081b0c:	90 02 20 01 	inc  %o0
40081b10:	c2 4a 00 00 	ldsb  [ %o0 ], %g1
40081b14:	80 a0 60 00 	cmp  %g1, 0
40081b18:	12 bf ff fd 	bne  40081b0c <strlen+0x1c>
40081b1c:	84 00 a0 01 	inc  %g2
    return i;
40081b20:	82 10 00 02 	mov  %g2, %g1
40081b24:	81 c3 e0 08 	retl 
40081b28:	90 10 00 01 	mov  %g1, %o0

40081b2c <strcat>:
    }
    return (char*)t;
}


char *strcat(char *s, const char* t) {
40081b2c:	9d e3 bf 98 	save  %sp, -104, %sp
    char *dest=s;
    s+=strlen(s);
40081b30:	7f ff ff f0 	call  40081af0 <strlen>
40081b34:	90 10 00 18 	mov  %i0, %o0
40081b38:	86 06 00 08 	add  %i0, %o0, %g3
    for (;;) {
        if (!(*s=*t)) break; ++s; ++t;
40081b3c:	c4 0e 40 00 	ldub  [ %i1 ], %g2
40081b40:	83 28 a0 18 	sll  %g2, 0x18, %g1
40081b44:	c4 28 c0 00 	stb  %g2, [ %g3 ]
40081b48:	b2 06 60 01 	inc  %i1
40081b4c:	80 a0 60 00 	cmp  %g1, 0
40081b50:	12 bf ff fb 	bne  40081b3c <strcat+0x10>
40081b54:	86 00 e0 01 	inc  %g3
40081b58:	81 c7 e0 08 	ret 
40081b5c:	81 e8 00 00 	restore 

40081b60 <strncat>:
    }
    return dest;
}

char *strncat(char *s, const char *t, xmSize_t n) {
40081b60:	9d e3 bf 98 	save  %sp, -104, %sp
    char *dest=s;
    register char *max;
    s+=strlen(s);
40081b64:	7f ff ff e3 	call  40081af0 <strlen>
40081b68:	90 10 00 18 	mov  %i0, %o0
40081b6c:	84 06 00 08 	add  %i0, %o0, %g2
    if ((max=s+n)!=s) {
40081b70:	86 00 80 1a 	add  %g2, %i2, %g3
40081b74:	80 a0 c0 02 	cmp  %g3, %g2
40081b78:	32 80 00 09 	bne,a   40081b9c <strncat+0x3c>
40081b7c:	c2 4e 40 00 	ldsb  [ %i1 ], %g1
40081b80:	30 80 00 0c 	b,a   40081bb0 <strncat+0x50>
40081b84:	c2 28 80 00 	stb  %g1, [ %g2 ]
        for (;;) {
            if (!(*s = *t)) break; if (++s==max) break; ++t;
40081b88:	84 00 a0 01 	inc  %g2
40081b8c:	80 a0 80 03 	cmp  %g2, %g3
40081b90:	22 80 00 08 	be,a   40081bb0 <strncat+0x50>
40081b94:	c0 28 80 00 	clrb  [ %g2 ]
40081b98:	c2 4e 40 00 	ldsb  [ %i1 ], %g1
40081b9c:	80 a0 60 00 	cmp  %g1, 0
40081ba0:	c2 0e 40 00 	ldub  [ %i1 ], %g1
40081ba4:	12 bf ff f8 	bne  40081b84 <strncat+0x24>
40081ba8:	b2 06 60 01 	inc  %i1
        }
        *s=0;
40081bac:	c0 28 80 00 	clrb  [ %g2 ]
40081bb0:	81 c7 e0 08 	ret 
40081bb4:	81 e8 00 00 	restore 

40081bb8 <memset>:

void *memset(void *dst, int s, unsigned int count) {
    register char * a = dst;
    count++;
    while (--count)
        *a++ = s;
40081bb8:	80 a2 a0 00 	cmp  %o2, 0
40081bbc:	02 80 00 06 	be  40081bd4 <memset+0x1c>
40081bc0:	82 10 00 08 	mov  %o0, %g1
40081bc4:	d2 28 40 00 	stb  %o1, [ %g1 ]
40081bc8:	94 82 bf ff 	addcc  %o2, -1, %o2
40081bcc:	12 bf ff fe 	bne  40081bc4 <memset+0xc>
40081bd0:	82 00 60 01 	inc  %g1
40081bd4:	81 c3 e0 08 	retl 
40081bd8:	01 00 00 00 	nop 

40081bdc <memcpy>:
    register char *d=dst;
    register const char *s=src;
    ++count;
    while (--count) {
        *d = *s;
        ++d; ++s;
40081bdc:	80 a2 a0 00 	cmp  %o2, 0
40081be0:	02 80 00 08 	be  40081c00 <memcpy+0x24>
40081be4:	84 10 00 08 	mov  %o0, %g2
void *memcpy(void* dst, const void* src, unsigned int count) {
    register char *d=dst;
    register const char *s=src;
    ++count;
    while (--count) {
        *d = *s;
40081be8:	c2 0a 40 00 	ldub  [ %o1 ], %g1
40081bec:	c2 28 80 00 	stb  %g1, [ %g2 ]
        ++d; ++s;
40081bf0:	84 00 a0 01 	inc  %g2
40081bf4:	94 82 bf ff 	addcc  %o2, -1, %o2
40081bf8:	12 bf ff fc 	bne  40081be8 <memcpy+0xc>
40081bfc:	92 02 60 01 	inc  %o1
40081c00:	81 c3 e0 08 	retl 
40081c04:	01 00 00 00 	nop 

40081c08 <strncpy>:
    }
    return dst;
}

char *strncpy(char *dest, const char *src, xmSize_t n) {
40081c08:	9d e3 bf 98 	save  %sp, -104, %sp
    xm_s32_t j;

    memset(dest,0,n);
40081c0c:	90 10 00 18 	mov  %i0, %o0
40081c10:	92 10 20 00 	clr  %o1
40081c14:	7f ff ff e9 	call  40081bb8 <memset>
40081c18:	94 10 00 1a 	mov  %i2, %o2

    for (j=0; j<n && src[j]; j++)
40081c1c:	84 10 20 00 	clr  %g2
40081c20:	80 a0 80 1a 	cmp  %g2, %i2
40081c24:	3a 80 00 12 	bcc,a   40081c6c <strncpy+0x64>
40081c28:	82 06 00 1a 	add  %i0, %i2, %g1
40081c2c:	c2 4e 40 00 	ldsb  [ %i1 ], %g1
40081c30:	80 a0 60 00 	cmp  %g1, 0
40081c34:	02 80 00 0b 	be  40081c60 <strncpy+0x58>
40081c38:	c2 0e 40 00 	ldub  [ %i1 ], %g1
	dest[j]=src[j];
40081c3c:	c2 2e 00 02 	stb  %g1, [ %i0 + %g2 ]
char *strncpy(char *dest, const char *src, xmSize_t n) {
    xm_s32_t j;

    memset(dest,0,n);

    for (j=0; j<n && src[j]; j++)
40081c40:	84 00 a0 01 	inc  %g2
40081c44:	80 a0 80 1a 	cmp  %g2, %i2
40081c48:	3a 80 00 09 	bcc,a   40081c6c <strncpy+0x64>
40081c4c:	82 06 00 1a 	add  %i0, %i2, %g1
40081c50:	c2 4e 40 02 	ldsb  [ %i1 + %g2 ], %g1
40081c54:	80 a0 60 00 	cmp  %g1, 0
40081c58:	12 bf ff f9 	bne  40081c3c <strncpy+0x34>
40081c5c:	c2 0e 40 02 	ldub  [ %i1 + %g2 ], %g1
	dest[j]=src[j];

    if (j>=n)
40081c60:	80 a0 80 1a 	cmp  %g2, %i2
40081c64:	0a 80 00 03 	bcs  40081c70 <strncpy+0x68>
40081c68:	82 06 00 1a 	add  %i0, %i2, %g1
	dest[n-1]=0;
40081c6c:	c0 28 7f ff 	clrb  [ %g1 + -1 ]
40081c70:	81 c7 e0 08 	ret 
40081c74:	81 e8 00 00 	restore 

40081c78 <strncmp>:
}

int strncmp(const char *s1, const char *s2, xmSize_t n) {
  register const unsigned char *a=(const unsigned char*)s1;
  register const unsigned char *b=(const unsigned char*)s2;
  register const unsigned char *fini=a+n;
40081c78:	86 02 00 0a 	add  %o0, %o2, %g3

  while (a < fini) {
    register int res = *a-*b;
    if (res) return res;
    if (!*a) return 0;
    ++a; ++b;
40081c7c:	80 a2 00 03 	cmp  %o0, %g3
40081c80:	3a 80 00 0e 	bcc,a   40081cb8 <strncmp+0x40>
40081c84:	90 10 20 00 	clr  %o0
  register const unsigned char *a=(const unsigned char*)s1;
  register const unsigned char *b=(const unsigned char*)s2;
  register const unsigned char *fini=a+n;

  while (a < fini) {
    register int res = *a-*b;
40081c88:	c4 0a 00 00 	ldub  [ %o0 ], %g2
40081c8c:	c2 0a 40 00 	ldub  [ %o1 ], %g1
    if (res) return res;
    if (!*a) return 0;
    ++a; ++b;
40081c90:	90 02 20 01 	inc  %o0
  register const unsigned char *b=(const unsigned char*)s2;
  register const unsigned char *fini=a+n;

  while (a < fini) {
    register int res = *a-*b;
    if (res) return res;
40081c94:	82 a0 80 01 	subcc  %g2, %g1, %g1
40081c98:	12 80 00 07 	bne  40081cb4 <strncmp+0x3c>
40081c9c:	92 02 60 01 	inc  %o1
    if (!*a) return 0;
40081ca0:	80 a0 a0 00 	cmp  %g2, 0
40081ca4:	12 bf ff f7 	bne  40081c80 <strncmp+0x8>
40081ca8:	80 a2 00 03 	cmp  %o0, %g3
    ++a; ++b;
  }
  return 0;
40081cac:	10 80 00 03 	b  40081cb8 <strncmp+0x40>
40081cb0:	90 10 20 00 	clr  %o0
  register const unsigned char *b=(const unsigned char*)s2;
  register const unsigned char *fini=a+n;

  while (a < fini) {
    register int res = *a-*b;
    if (res) return res;
40081cb4:	90 10 00 01 	mov  %g1, %o0
40081cb8:	81 c3 e0 08 	retl 
40081cbc:	01 00 00 00 	nop 

40081cc0 <strcmp>:
}
int strcmp(const char *s, const char *t) {
    char x;

    for (;;) {
	x = *s; if (x != *t) break; if (!x) break; ++s; ++t;
40081cc0:	c2 0a 00 00 	ldub  [ %o0 ], %g1
40081cc4:	87 28 60 18 	sll  %g1, 0x18, %g3
40081cc8:	c4 4a 40 00 	ldsb  [ %o1 ], %g2
40081ccc:	83 38 e0 18 	sra  %g3, 0x18, %g1
40081cd0:	80 a0 80 01 	cmp  %g2, %g1
40081cd4:	c2 0a 40 00 	ldub  [ %o1 ], %g1
40081cd8:	90 02 20 01 	inc  %o0
40081cdc:	12 80 00 05 	bne  40081cf0 <strcmp+0x30>
40081ce0:	92 02 60 01 	inc  %o1
40081ce4:	80 a0 a0 00 	cmp  %g2, 0
40081ce8:	32 bf ff f7 	bne,a   40081cc4 <strcmp+0x4>
40081cec:	c2 0a 00 00 	ldub  [ %o0 ], %g1
    }
    return ((int)x)-((int)*t);
40081cf0:	91 28 60 18 	sll  %g1, 0x18, %o0
40081cf4:	83 38 e0 18 	sra  %g3, 0x18, %g1
40081cf8:	91 3a 20 18 	sra  %o0, 0x18, %o0
40081cfc:	81 c3 e0 08 	retl 
40081d00:	90 20 40 08 	sub  %g1, %o0, %o0

40081d04 <memcmp>:
    ++count;
    while (--count) {
        if ((r=(*d - *s)))
            return r;
        ++d;
        ++s;
40081d04:	80 a2 a0 00 	cmp  %o2, 0
40081d08:	22 80 00 0e 	be,a   40081d40 <memcmp+0x3c>
40081d0c:	90 10 20 00 	clr  %o0
    int r;
    const char *d=dst;
    const char *s=src;
    ++count;
    while (--count) {
        if ((r=(*d - *s)))
40081d10:	c4 4a 00 00 	ldsb  [ %o0 ], %g2
40081d14:	c2 4a 40 00 	ldsb  [ %o1 ], %g1
            return r;
        ++d;
40081d18:	90 02 20 01 	inc  %o0
    int r;
    const char *d=dst;
    const char *s=src;
    ++count;
    while (--count) {
        if ((r=(*d - *s)))
40081d1c:	84 a0 80 01 	subcc  %g2, %g1, %g2
40081d20:	12 80 00 07 	bne  40081d3c <memcmp+0x38>
40081d24:	92 02 60 01 	inc  %o1
            return r;
        ++d;
        ++s;
40081d28:	94 82 bf ff 	addcc  %o2, -1, %o2
40081d2c:	32 bf ff fa 	bne,a   40081d14 <memcmp+0x10>
40081d30:	c4 4a 00 00 	ldsb  [ %o0 ], %g2
    }
    return 0;
40081d34:	10 80 00 03 	b  40081d40 <memcmp+0x3c>
40081d38:	90 10 20 00 	clr  %o0
    const char *d=dst;
    const char *s=src;
    ++count;
    while (--count) {
        if ((r=(*d - *s)))
            return r;
40081d3c:	90 10 00 02 	mov  %g2, %o0
40081d40:	81 c3 e0 08 	retl 
40081d44:	01 00 00 00 	nop 

40081d48 <ConversionLoop>:
    unsigned char islong, unsigned char isvlong, 
    unsigned long long u_val, long long s_val, 
#else
    unsigned int u_val, int s_val, 
#endif
    unsigned char width, unsigned char fill, unsigned char *scratch) {
40081d48:	9d e3 bf 88 	save  %sp, -120, %sp
    if(issigned) //Signed types
40081d4c:	80 8e a0 ff 	btst  0xff, %i2
    unsigned char islong, unsigned char isvlong, 
    unsigned long long u_val, long long s_val, 
#else
    unsigned int u_val, int s_val, 
#endif
    unsigned char width, unsigned char fill, unsigned char *scratch) {
40081d50:	aa 10 00 18 	mov  %i0, %l5
40081d54:	f0 07 a0 78 	ld  [ %fp + 0x78 ], %i0
40081d58:	c2 0f a0 5f 	ldub  [ %fp + 0x5f ], %g1
40081d5c:	f4 0f a0 73 	ldub  [ %fp + 0x73 ], %i2
    if(issigned) //Signed types
40081d60:	02 80 00 14 	be  40081db0 <ConversionLoop+0x68>
40081d64:	e8 0f a0 77 	ldub  [ %fp + 0x77 ], %l4
    {
#ifdef USE_LONG
        if(isvlong) { s_val = va_arg((*args), long long); }
40081d68:	a0 08 60 ff 	and  %g1, 0xff, %l0
40081d6c:	80 a4 20 00 	cmp  %l0, 0
40081d70:	32 80 00 74 	bne,a   40081f40 <ConversionLoop+0x1f8>
40081d74:	c6 06 40 00 	ld  [ %i1 ], %g3
        else if(islong) { s_val = va_arg((*args), long); }
        else { s_val = va_arg((*args), int); }
40081d78:	c2 06 40 00 	ld  [ %i1 ], %g1
40081d7c:	84 00 60 04 	add  %g1, 4, %g2
40081d80:	c4 26 40 00 	st  %g2, [ %i1 ]
40081d84:	c6 00 40 00 	ld  [ %g1 ], %g3
40081d88:	a5 38 e0 1f 	sra  %g3, 0x1f, %l2
#else
        s_val = va_arg((*args), int);
#endif
        
        if(s_val < 0) //Value negativ ?
40081d8c:	80 a4 a0 00 	cmp  %l2, 0
40081d90:	06 80 00 82 	bl  40081f98 <ConversionLoop+0x250>
40081d94:	a6 10 00 03 	mov  %g3, %l3
        {
            s_val = - s_val; //Make it positiv
            if (fp->putc) fp->putc('-', fp->a);		 //Output sign
        }
        
        if(!isvlong)
40081d98:	80 a4 20 00 	cmp  %l0, 0
            u_val = (unsigned long)s_val;
40081d9c:	a0 10 20 00 	clr  %l0
        {
            s_val = - s_val; //Make it positiv
            if (fp->putc) fp->putc('-', fp->a);		 //Output sign
        }
        
        if(!isvlong)
40081da0:	02 80 00 0d 	be  40081dd4 <ConversionLoop+0x8c>
40081da4:	a2 10 00 13 	mov  %l3, %l1
            u_val = (unsigned long)s_val;
        else
            u_val = (unsigned long long)s_val;
40081da8:	10 80 00 0b 	b  40081dd4 <ConversionLoop+0x8c>
40081dac:	a0 10 00 12 	mov  %l2, %l0
    }
    else //Unsigned types
    {
#ifdef USE_LONG
        if(isvlong) {u_val = va_arg((*args), unsigned long long); }
40081db0:	80 a0 60 00 	cmp  %g1, 0
40081db4:	32 80 00 4f 	bne,a   40081ef0 <ConversionLoop+0x1a8>
40081db8:	c6 06 40 00 	ld  [ %i1 ], %g3
        else if(islong) { u_val = va_arg((*args), unsigned long); }
        else { u_val = va_arg((*args), unsigned int); }
40081dbc:	c2 06 40 00 	ld  [ %i1 ], %g1
40081dc0:	84 00 60 04 	add  %g1, 4, %g2
40081dc4:	c4 26 40 00 	st  %g2, [ %i1 ]
40081dc8:	c6 00 40 00 	ld  [ %g1 ], %g3
40081dcc:	a0 10 20 00 	clr  %l0
40081dd0:	a2 10 00 03 	mov  %g3, %l1
        u_val = va_arg((*args), unsigned int);
#endif
    }
    
    ptr = scratch + SCRATCH;
    *--ptr = 0;
40081dd4:	c0 2e 20 13 	clrb  [ %i0 + 0x13 ]
40081dd8:	b7 2e e0 10 	sll  %i3, 0x10, %i3
40081ddc:	b0 06 20 13 	add  %i0, 0x13, %i0
40081de0:	a4 07 bf e8 	add  %fp, -24, %l2
    do
    {
        unsigned long long r;
        divmod64(u_val, base, &r);
40081de4:	87 36 e0 10 	srl  %i3, 0x10, %g3
40081de8:	96 10 00 03 	mov  %g3, %o3
40081dec:	94 10 20 00 	clr  %o2
40081df0:	98 07 bf e8 	add  %fp, -24, %o4
40081df4:	90 10 00 10 	mov  %l0, %o0
40081df8:	7f ff fe 87 	call  40081814 <divmod64>
40081dfc:	92 10 00 11 	mov  %l1, %o1
            ch-=0x20;
#endif
        }
#endif					
        *--ptr = ch;
        u_val = divmod64(u_val, base, 0);
40081e00:	87 36 e0 10 	srl  %i3, 0x10, %g3
40081e04:	96 10 00 03 	mov  %g3, %o3
    *--ptr = 0;
    do
    {
        unsigned long long r;
        divmod64(u_val, base, &r);
        char ch = (char) r + '0';
40081e08:	c6 0c a0 07 	ldub  [ %l2 + 7 ], %g3
40081e0c:	84 00 e0 30 	add  %g3, 0x30, %g2
#ifdef USE_HEX
        if (ch > '9')
40081e10:	83 28 a0 18 	sll  %g2, 0x18, %g1
40081e14:	83 38 60 18 	sra  %g1, 0x18, %g1
#ifdef USE_UPPERHEX
            ch-=0x20;
#endif
        }
#endif					
        *--ptr = ch;
40081e18:	b0 06 3f ff 	add  %i0, -1, %i0
        u_val = divmod64(u_val, base, 0);
40081e1c:	90 10 00 10 	mov  %l0, %o0
40081e20:	92 10 00 11 	mov  %l1, %o1
40081e24:	94 10 20 00 	clr  %o2
    {
        unsigned long long r;
        divmod64(u_val, base, &r);
        char ch = (char) r + '0';
#ifdef USE_HEX
        if (ch > '9')
40081e28:	80 a0 60 39 	cmp  %g1, 0x39
40081e2c:	04 80 00 03 	ble  40081e38 <ConversionLoop+0xf0>
40081e30:	98 10 20 00 	clr  %o4
        {
            ch += 'a' - '9' - 1;
#ifdef USE_UPPERHEX
            ch-=0x20;
40081e34:	84 00 e0 37 	add  %g3, 0x37, %g2
#endif
        }
#endif					
        *--ptr = ch;
        u_val = divmod64(u_val, base, 0);
40081e38:	7f ff fe 77 	call  40081814 <divmod64>
40081e3c:	c4 2e 00 00 	stb  %g2, [ %i0 ]
        
#ifdef PADDING
        if(width) width--; //calculate number of padding chars
40081e40:	83 2e a0 18 	sll  %i2, 0x18, %g1
40081e44:	83 38 60 18 	sra  %g1, 0x18, %g1
40081e48:	82 18 60 00 	xor  %g1, 0, %g1
40081e4c:	80 a0 00 01 	cmp  %g0, %g1
40081e50:	84 40 20 00 	addx  %g0, 0, %g2
            ch-=0x20;
#endif
        }
#endif					
        *--ptr = ch;
        u_val = divmod64(u_val, base, 0);
40081e54:	a0 10 00 08 	mov  %o0, %l0
        
#ifdef PADDING
        if(width) width--; //calculate number of padding chars
40081e58:	84 26 80 02 	sub  %i2, %g2, %g2
            ch-=0x20;
#endif
        }
#endif					
        *--ptr = ch;
        u_val = divmod64(u_val, base, 0);
40081e5c:	a2 10 00 09 	mov  %o1, %l1
        
#ifdef PADDING
        if(width) width--; //calculate number of padding chars
#endif
        } while (u_val);
40081e60:	80 94 00 09 	orcc  %l0, %o1, %g0
40081e64:	12 bf ff e0 	bne  40081de4 <ConversionLoop+0x9c>
40081e68:	b4 10 00 02 	mov  %g2, %i2
    
#ifdef PADDING
    while(width--) *--ptr = fill; //insert padding chars					
40081e6c:	84 00 bf ff 	add  %g2, -1, %g2
40081e70:	82 08 a0 ff 	and  %g2, 0xff, %g1
40081e74:	80 a0 60 ff 	cmp  %g1, 0xff
40081e78:	02 80 00 53 	be  40081fc4 <ConversionLoop+0x27c>
40081e7c:	b4 10 00 02 	mov  %g2, %i2
40081e80:	90 10 00 14 	mov  %l4, %o0
40081e84:	84 06 bf ff 	add  %i2, -1, %g2
40081e88:	b0 06 3f ff 	add  %i0, -1, %i0
40081e8c:	82 08 a0 ff 	and  %g2, 0xff, %g1
40081e90:	80 a0 60 ff 	cmp  %g1, 0xff
40081e94:	e8 2e 00 00 	stb  %l4, [ %i0 ]
40081e98:	12 bf ff fb 	bne  40081e84 <ConversionLoop+0x13c>
40081e9c:	b4 10 00 02 	mov  %g2, %i2
#endif
    
    while(*ptr) { if (fp->putc) fp->putc(*ptr, fp->a); ptr++; }
40081ea0:	80 8a 20 ff 	btst  0xff, %o0
40081ea4:	32 80 00 08 	bne,a   40081ec4 <ConversionLoop+0x17c>
40081ea8:	c2 05 40 00 	ld  [ %l5 ], %g1
40081eac:	30 80 00 48 	b,a   40081fcc <ConversionLoop+0x284>
40081eb0:	d0 0e 00 00 	ldub  [ %i0 ], %o0
40081eb4:	80 a2 20 00 	cmp  %o0, 0
40081eb8:	02 80 00 45 	be  40081fcc <ConversionLoop+0x284>
40081ebc:	01 00 00 00 	nop 
40081ec0:	c2 05 40 00 	ld  [ %l5 ], %g1
40081ec4:	b0 06 20 01 	inc  %i0
40081ec8:	80 a0 60 00 	cmp  %g1, 0
40081ecc:	02 bf ff f9 	be  40081eb0 <ConversionLoop+0x168>
40081ed0:	90 0a 20 ff 	and  %o0, 0xff, %o0
40081ed4:	9f c0 40 00 	call  %g1
40081ed8:	d2 05 60 04 	ld  [ %l5 + 4 ], %o1
40081edc:	d0 0e 00 00 	ldub  [ %i0 ], %o0
40081ee0:	80 a2 20 00 	cmp  %o0, 0
40081ee4:	32 bf ff f8 	bne,a   40081ec4 <ConversionLoop+0x17c>
40081ee8:	c2 05 40 00 	ld  [ %l5 ], %g1
40081eec:	30 80 00 38 	b,a   40081fcc <ConversionLoop+0x284>
            u_val = (unsigned long long)s_val;
    }
    else //Unsigned types
    {
#ifdef USE_LONG
        if(isvlong) {u_val = va_arg((*args), unsigned long long); }
40081ef0:	82 00 e0 08 	add  %g3, 8, %g1
40081ef4:	c2 26 40 00 	st  %g1, [ %i1 ]
40081ef8:	c4 08 c0 00 	ldub  [ %g3 ], %g2
40081efc:	c4 2f bf f0 	stb  %g2, [ %fp + -16 ]
40081f00:	c2 08 e0 01 	ldub  [ %g3 + 1 ], %g1
40081f04:	c2 2f bf f1 	stb  %g1, [ %fp + -15 ]
40081f08:	c4 08 e0 02 	ldub  [ %g3 + 2 ], %g2
40081f0c:	c4 2f bf f2 	stb  %g2, [ %fp + -14 ]
40081f10:	c2 08 e0 03 	ldub  [ %g3 + 3 ], %g1
40081f14:	c2 2f bf f3 	stb  %g1, [ %fp + -13 ]
40081f18:	c4 08 e0 04 	ldub  [ %g3 + 4 ], %g2
40081f1c:	c4 2f bf f4 	stb  %g2, [ %fp + -12 ]
40081f20:	c2 08 e0 05 	ldub  [ %g3 + 5 ], %g1
40081f24:	c2 2f bf f5 	stb  %g1, [ %fp + -11 ]
40081f28:	c4 08 e0 06 	ldub  [ %g3 + 6 ], %g2
40081f2c:	c4 2f bf f6 	stb  %g2, [ %fp + -10 ]
40081f30:	c2 08 e0 07 	ldub  [ %g3 + 7 ], %g1
40081f34:	c2 2f bf f7 	stb  %g1, [ %fp + -9 ]
40081f38:	10 bf ff a7 	b  40081dd4 <ConversionLoop+0x8c>
40081f3c:	e0 1f bf f0 	ldd  [ %fp + -16 ], %l0
#endif
    unsigned char width, unsigned char fill, unsigned char *scratch) {
    if(issigned) //Signed types
    {
#ifdef USE_LONG
        if(isvlong) { s_val = va_arg((*args), long long); }
40081f40:	82 00 e0 08 	add  %g3, 8, %g1
40081f44:	c2 26 40 00 	st  %g1, [ %i1 ]
40081f48:	c4 08 c0 00 	ldub  [ %g3 ], %g2
40081f4c:	c4 2f bf f0 	stb  %g2, [ %fp + -16 ]
40081f50:	c2 08 e0 01 	ldub  [ %g3 + 1 ], %g1
40081f54:	c2 2f bf f1 	stb  %g1, [ %fp + -15 ]
40081f58:	c4 08 e0 02 	ldub  [ %g3 + 2 ], %g2
40081f5c:	c4 2f bf f2 	stb  %g2, [ %fp + -14 ]
40081f60:	c2 08 e0 03 	ldub  [ %g3 + 3 ], %g1
40081f64:	c2 2f bf f3 	stb  %g1, [ %fp + -13 ]
40081f68:	c4 08 e0 04 	ldub  [ %g3 + 4 ], %g2
40081f6c:	c4 2f bf f4 	stb  %g2, [ %fp + -12 ]
40081f70:	c2 08 e0 05 	ldub  [ %g3 + 5 ], %g1
40081f74:	c2 2f bf f5 	stb  %g1, [ %fp + -11 ]
40081f78:	c4 08 e0 06 	ldub  [ %g3 + 6 ], %g2
40081f7c:	c4 2f bf f6 	stb  %g2, [ %fp + -10 ]
40081f80:	c2 08 e0 07 	ldub  [ %g3 + 7 ], %g1
40081f84:	c2 2f bf f7 	stb  %g1, [ %fp + -9 ]
40081f88:	e4 1f bf f0 	ldd  [ %fp + -16 ], %l2
        else { s_val = va_arg((*args), int); }
#else
        s_val = va_arg((*args), int);
#endif
        
        if(s_val < 0) //Value negativ ?
40081f8c:	80 a4 a0 00 	cmp  %l2, 0
40081f90:	16 bf ff 83 	bge  40081d9c <ConversionLoop+0x54>
40081f94:	80 a4 20 00 	cmp  %l0, 0
        {
            s_val = - s_val; //Make it positiv
40081f98:	a6 a0 00 13 	subcc  %g0, %l3, %l3
40081f9c:	a4 60 00 12 	subx  %g0, %l2, %l2
            if (fp->putc) fp->putc('-', fp->a);		 //Output sign
40081fa0:	c2 05 40 00 	ld  [ %l5 ], %g1
40081fa4:	80 a0 60 00 	cmp  %g1, 0
40081fa8:	22 bf ff 7d 	be,a   40081d9c <ConversionLoop+0x54>
40081fac:	80 a4 20 00 	cmp  %l0, 0
40081fb0:	d2 05 60 04 	ld  [ %l5 + 4 ], %o1
40081fb4:	9f c0 40 00 	call  %g1
40081fb8:	90 10 20 2d 	mov  0x2d, %o0
        }
        
        if(!isvlong)
40081fbc:	10 bf ff 78 	b  40081d9c <ConversionLoop+0x54>
40081fc0:	80 a4 20 00 	cmp  %l0, 0
40081fc4:	10 bf ff b7 	b  40081ea0 <ConversionLoop+0x158>
40081fc8:	d0 0e 00 00 	ldub  [ %i0 ], %o0
40081fcc:	81 c7 e0 08 	ret 
40081fd0:	81 e8 00 00 	restore 

40081fd4 <vrprintf>:
    
    while(*ptr) { if (fp->putc) fp->putc(*ptr, fp->a); ptr++; }
    return ptr;
}

void vrprintf(Fprint *fp, char const *fmt, va_list args) {
40081fd4:	9d e3 bf 60 	save  %sp, -160, %sp
40081fd8:	f4 27 a0 4c 	st  %i2, [ %fp + 0x4c ]
    unsigned char scratch[SCRATCH];
    unsigned char fmt_flag;
    unsigned short base;
    unsigned char *ptr = 0;
40081fdc:	b4 10 20 00 	clr  %i2
    unsigned char issigned=0;

#ifdef USE_LONG
    unsigned char islong=0;
    unsigned char isvlong=0;
    unsigned long long u_val=0;
40081fe0:	a0 10 20 00 	clr  %l0
40081fe4:	a2 10 20 00 	clr  %l1
    long long s_val=0;
40081fe8:	a4 10 20 00 	clr  %l2
40081fec:	a6 10 20 00 	clr  %l3
    unsigned char width;

    for (;;){
        while ((fmt_flag = *(fmt++)) != '%'){			 // Until '%' or '\0' 
            if (!fmt_flag){ return; }
            if (fp->putc) fp->putc(fmt_flag, fp->a);
40081ff0:	c2 0e 40 00 	ldub  [ %i1 ], %g1
40081ff4:	80 a0 60 25 	cmp  %g1, 0x25
40081ff8:	02 80 00 10 	be  40082038 <vrprintf+0x64>
40081ffc:	b2 06 60 01 	inc  %i1
    unsigned char fill;
    unsigned char width;

    for (;;){
        while ((fmt_flag = *(fmt++)) != '%'){			 // Until '%' or '\0' 
            if (!fmt_flag){ return; }
40082000:	90 08 60 ff 	and  %g1, 0xff, %o0
40082004:	80 a2 20 00 	cmp  %o0, 0
40082008:	02 80 00 97 	be  40082264 <vrprintf+0x290>
4008200c:	01 00 00 00 	nop 
            if (fp->putc) fp->putc(fmt_flag, fp->a);
40082010:	c8 06 00 00 	ld  [ %i0 ], %g4
40082014:	80 a1 20 00 	cmp  %g4, 0
40082018:	22 bf ff f7 	be,a   40081ff4 <vrprintf+0x20>
4008201c:	c2 0e 40 00 	ldub  [ %i1 ], %g1
40082020:	9f c1 00 00 	call  %g4
40082024:	d2 06 20 04 	ld  [ %i0 + 4 ], %o1
40082028:	c2 0e 40 00 	ldub  [ %i1 ], %g1
4008202c:	80 a0 60 25 	cmp  %g1, 0x25
40082030:	12 bf ff f4 	bne  40082000 <vrprintf+0x2c>
40082034:	b2 06 60 01 	inc  %i1
        }

        issigned=0; //default unsigned
        base = 10;

        fmt_flag = *fmt++; //get char after '%'
40082038:	c2 0e 40 00 	ldub  [ %i1 ], %g1

#ifdef PADDING
        width=0; //no formatting
        fill=0;	 //no formatting

        if(fmt_flag=='0' || fmt_flag==' ') //SPACE or ZERO padding	?
4008203c:	84 08 60 ff 	and  %g1, 0xff, %g2
        }

        issigned=0; //default unsigned
        base = 10;

        fmt_flag = *fmt++; //get char after '%'
40082040:	90 10 00 01 	mov  %g1, %o0

#ifdef PADDING
        width=0; //no formatting
        fill=0;	 //no formatting

        if(fmt_flag=='0' || fmt_flag==' ') //SPACE or ZERO padding	?
40082044:	82 18 a0 30 	xor  %g2, 0x30, %g1
40082048:	80 a0 00 01 	cmp  %g0, %g1
4008204c:	86 60 3f ff 	subx  %g0, -1, %g3
40082050:	84 18 a0 20 	xor  %g2, 0x20, %g2
40082054:	80 a0 00 02 	cmp  %g0, %g2
40082058:	82 60 3f ff 	subx  %g0, -1, %g1
4008205c:	80 90 c0 01 	orcc  %g3, %g1, %g0
        }

        issigned=0; //default unsigned
        base = 10;

        fmt_flag = *fmt++; //get char after '%'
40082060:	b2 06 60 01 	inc  %i1
        while ((fmt_flag = *(fmt++)) != '%'){			 // Until '%' or '\0' 
            if (!fmt_flag){ return; }
            if (fp->putc) fp->putc(fmt_flag, fp->a);
        }

        issigned=0; //default unsigned
40082064:	94 10 20 00 	clr  %o2
        base = 10;

        fmt_flag = *fmt++; //get char after '%'

#ifdef PADDING
        width=0; //no formatting
40082068:	98 10 20 00 	clr  %o4
        fill=0;	 //no formatting

        if(fmt_flag=='0' || fmt_flag==' ') //SPACE or ZERO padding	?
4008206c:	02 80 00 16 	be  400820c4 <vrprintf+0xf0>
40082070:	92 10 20 00 	clr  %o1
        {
            fill=fmt_flag;
            fmt_flag = *fmt++; //get char after padding char
40082074:	c4 0e 40 00 	ldub  [ %i1 ], %g2
            while(fmt_flag>='0' && fmt_flag<='9')
            {
                width = 10*width + (fmt_flag-'0');
                fmt_flag = *fmt++; //get char after width char
40082078:	82 00 bf d0 	add  %g2, -48, %g1
        width=0; //no formatting
        fill=0;	 //no formatting

        if(fmt_flag=='0' || fmt_flag==' ') //SPACE or ZERO padding	?
        {
            fill=fmt_flag;
4008207c:	92 10 00 08 	mov  %o0, %o1
            fmt_flag = *fmt++; //get char after padding char
            while(fmt_flag>='0' && fmt_flag<='9')
            {
                width = 10*width + (fmt_flag-'0');
                fmt_flag = *fmt++; //get char after width char
40082080:	82 08 60 ff 	and  %g1, 0xff, %g1
        fill=0;	 //no formatting

        if(fmt_flag=='0' || fmt_flag==' ') //SPACE or ZERO padding	?
        {
            fill=fmt_flag;
            fmt_flag = *fmt++; //get char after padding char
40082084:	90 10 00 02 	mov  %g2, %o0
            while(fmt_flag>='0' && fmt_flag<='9')
            {
                width = 10*width + (fmt_flag-'0');
                fmt_flag = *fmt++; //get char after width char
40082088:	10 80 00 0d 	b  400820bc <vrprintf+0xe8>
4008208c:	80 a0 60 09 	cmp  %g1, 9
        {
            fill=fmt_flag;
            fmt_flag = *fmt++; //get char after padding char
            while(fmt_flag>='0' && fmt_flag<='9')
            {
                width = 10*width + (fmt_flag-'0');
40082090:	82 0b 20 ff 	and  %o4, 0xff, %g1
40082094:	85 28 60 02 	sll  %g1, 2, %g2
40082098:	84 00 80 01 	add  %g2, %g1, %g2
                fmt_flag = *fmt++; //get char after width char
4008209c:	c6 0e 40 00 	ldub  [ %i1 ], %g3
        {
            fill=fmt_flag;
            fmt_flag = *fmt++; //get char after padding char
            while(fmt_flag>='0' && fmt_flag<='9')
            {
                width = 10*width + (fmt_flag-'0');
400820a0:	84 00 80 02 	add  %g2, %g2, %g2
                fmt_flag = *fmt++; //get char after width char
400820a4:	82 00 ff d0 	add  %g3, -48, %g1
        {
            fill=fmt_flag;
            fmt_flag = *fmt++; //get char after padding char
            while(fmt_flag>='0' && fmt_flag<='9')
            {
                width = 10*width + (fmt_flag-'0');
400820a8:	84 00 80 08 	add  %g2, %o0, %g2
                fmt_flag = *fmt++; //get char after width char
400820ac:	82 08 60 ff 	and  %g1, 0xff, %g1
400820b0:	90 10 00 03 	mov  %g3, %o0
400820b4:	80 a0 60 09 	cmp  %g1, 9
        {
            fill=fmt_flag;
            fmt_flag = *fmt++; //get char after padding char
            while(fmt_flag>='0' && fmt_flag<='9')
            {
                width = 10*width + (fmt_flag-'0');
400820b8:	98 00 bf d0 	add  %g2, -48, %o4
                fmt_flag = *fmt++; //get char after width char
400820bc:	08 bf ff f5 	bleu  40082090 <vrprintf+0xbc>
400820c0:	b2 06 60 01 	inc  %i1

#ifdef USE_LONG
        islong=0; //default int value
        isvlong=0;
#ifdef USE_UPPER
        if(fmt_flag=='l' || fmt_flag=='L') //Long value 
400820c4:	88 0a 20 ff 	and  %o0, 0xff, %g4
400820c8:	82 19 20 6c 	xor  %g4, 0x6c, %g1
400820cc:	80 a0 00 01 	cmp  %g0, %g1
400820d0:	86 60 3f ff 	subx  %g0, -1, %g3
400820d4:	82 19 20 4c 	xor  %g4, 0x4c, %g1
400820d8:	80 a0 00 01 	cmp  %g0, %g1
400820dc:	84 60 3f ff 	subx  %g0, -1, %g2
400820e0:	80 90 c0 02 	orcc  %g3, %g2, %g0
            }
        }
#endif

#ifdef USE_LONG
        islong=0; //default int value
400820e4:	9a 10 20 00 	clr  %o5
        isvlong=0;
#ifdef USE_UPPER
        if(fmt_flag=='l' || fmt_flag=='L') //Long value 
400820e8:	02 80 00 0a 	be  40082110 <vrprintf+0x13c>
400820ec:	96 10 20 00 	clr  %o3
#else
            if(fmt_flag=='l') //Long value 
#endif
            {
                islong=1;
                fmt_flag = *fmt++; //get char after 'l' or 'L'
400820f0:	c2 0e 40 00 	ldub  [ %i1 ], %g1
                if (fmt_flag=='l'){
400820f4:	84 08 60 ff 	and  %g1, 0xff, %g2
#else
            if(fmt_flag=='l') //Long value 
#endif
            {
                islong=1;
                fmt_flag = *fmt++; //get char after 'l' or 'L'
400820f8:	90 10 00 01 	mov  %g1, %o0
400820fc:	88 10 00 02 	mov  %g2, %g4
40082100:	b2 06 60 01 	inc  %i1
                if (fmt_flag=='l'){
40082104:	80 a0 a0 6c 	cmp  %g2, 0x6c
40082108:	02 80 00 19 	be  4008216c <vrprintf+0x198>
4008210c:	9a 10 20 01 	mov  1, %o5
                    fmt_flag = *fmt++; //get char after 'l' or 'L'
                }
            }
#endif

        switch (fmt_flag)
40082110:	82 01 3f bd 	add  %g4, -67, %g1
40082114:	80 a0 60 35 	cmp  %g1, 0x35
40082118:	38 80 00 0d 	bgu,a   4008214c <vrprintf+0x178>
4008211c:	c2 06 00 00 	ld  [ %i0 ], %g1
40082120:	05 10 02 05 	sethi  %hi(0x40081400), %g2
40082124:	83 28 60 02 	sll  %g1, 2, %g1
40082128:	84 10 a3 3c 	or  %g2, 0x33c, %g2
4008212c:	c6 00 80 01 	ld  [ %g2 + %g1 ], %g3
40082130:	81 c0 c0 00 	jmp  %g3
40082134:	01 00 00 00 	nop 
#ifdef USE_CHAR
        case 'c':
#ifdef USE_UPPER
        case 'C':
#endif
            fmt_flag = va_arg(args, int);
40082138:	c4 07 a0 4c 	ld  [ %fp + 0x4c ], %g2
4008213c:	82 00 a0 04 	add  %g2, 4, %g1
40082140:	c2 27 a0 4c 	st  %g1, [ %fp + 0x4c ]
40082144:	d0 08 a0 03 	ldub  [ %g2 + 3 ], %o0
        // no break -> run into default
#endif

        default:
            if (fp->putc)
40082148:	c2 06 00 00 	ld  [ %i0 ], %g1
4008214c:	80 a0 60 00 	cmp  %g1, 0
40082150:	22 bf ff a9 	be,a   40081ff4 <vrprintf+0x20>
40082154:	c2 0e 40 00 	ldub  [ %i1 ], %g1
                fp->putc(fmt_flag, fp->a);
40082158:	d2 06 20 04 	ld  [ %i0 + 4 ], %o1
4008215c:	9f c0 40 00 	call  %g1
40082160:	90 0a 20 ff 	and  %o0, 0xff, %o0
    unsigned char width;

    for (;;){
        while ((fmt_flag = *(fmt++)) != '%'){			 // Until '%' or '\0' 
            if (!fmt_flag){ return; }
            if (fp->putc) fp->putc(fmt_flag, fp->a);
40082164:	10 bf ff a4 	b  40081ff4 <vrprintf+0x20>
40082168:	c2 0e 40 00 	ldub  [ %i1 ], %g1
            {
                islong=1;
                fmt_flag = *fmt++; //get char after 'l' or 'L'
                if (fmt_flag=='l'){
                    isvlong = 1;
                    fmt_flag = *fmt++; //get char after 'l' or 'L'
4008216c:	c2 0e 40 00 	ldub  [ %i1 ], %g1
40082170:	90 10 00 01 	mov  %g1, %o0
40082174:	b2 06 60 01 	inc  %i1
#endif
            {
                islong=1;
                fmt_flag = *fmt++; //get char after 'l' or 'L'
                if (fmt_flag=='l'){
                    isvlong = 1;
40082178:	96 10 20 01 	mov  1, %o3
4008217c:	10 bf ff e5 	b  40082110 <vrprintf+0x13c>
40082180:	88 08 60 ff 	and  %g1, 0xff, %g4
#endif
        case 'd':
#ifdef USE_UPPER
        case 'D':
#endif
            issigned=1;
40082184:	94 10 20 01 	mov  1, %o2
        // no break -> run into next case
        case 'u':
#ifdef USE_UPPER
        case 'U':
#endif
            ptr = ConversionLoop(fp, &args, issigned, base, ptr, 
40082188:	82 0a e0 ff 	and  %o3, 0xff, %g1
4008218c:	c2 23 a0 5c 	st  %g1, [ %sp + 0x5c ]
40082190:	84 0b 20 ff 	and  %o4, 0xff, %g2
40082194:	86 0a 60 ff 	and  %o1, 0xff, %g3
40082198:	82 07 bf e0 	add  %fp, -32, %g1
4008219c:	c4 23 a0 70 	st  %g2, [ %sp + 0x70 ]
400821a0:	c6 23 a0 74 	st  %g3, [ %sp + 0x74 ]
400821a4:	c2 23 a0 78 	st  %g1, [ %sp + 0x78 ]
400821a8:	98 10 00 1a 	mov  %i2, %o4
400821ac:	e0 3b a0 60 	std  %l0, [ %sp + 0x60 ]
400821b0:	e4 3b a0 68 	std  %l2, [ %sp + 0x68 ]
400821b4:	94 0a a0 01 	and  %o2, 1, %o2
400821b8:	9a 0b 60 01 	and  %o5, 1, %o5
400821bc:	90 10 00 18 	mov  %i0, %o0
400821c0:	92 07 a0 4c 	add  %fp, 0x4c, %o1
400821c4:	96 10 20 0a 	mov  0xa, %o3
        case 'x':
#ifdef USE_UPPER
        case 'X':
#endif
            base = 16;
            ptr = ConversionLoop(fp, &args, issigned, base, ptr, 
400821c8:	7f ff fe e0 	call  40081d48 <ConversionLoop>
400821cc:	01 00 00 00 	nop 
400821d0:	10 bf ff 88 	b  40081ff0 <vrprintf+0x1c>
400821d4:	b4 10 00 08 	mov  %o0, %i2
#ifdef USE_STRING
#ifdef USE_UPPER
        case 'S':
#endif
        case 's':
            ptr = (unsigned char*)va_arg(args, char *);
400821d8:	c4 07 a0 4c 	ld  [ %fp + 0x4c ], %g2
400821dc:	82 00 a0 04 	add  %g2, 4, %g1
400821e0:	c2 27 a0 4c 	st  %g1, [ %fp + 0x4c ]
400821e4:	f4 00 80 00 	ld  [ %g2 ], %i2
            while(*ptr) { if(fp->putc) fp->putc(*ptr, fp->a); ptr++; }
400821e8:	d0 0e 80 00 	ldub  [ %i2 ], %o0
400821ec:	80 a2 20 00 	cmp  %o0, 0
400821f0:	22 bf ff 81 	be,a   40081ff4 <vrprintf+0x20>
400821f4:	c2 0e 40 00 	ldub  [ %i1 ], %g1
400821f8:	c2 06 00 00 	ld  [ %i0 ], %g1
400821fc:	80 a0 60 00 	cmp  %g1, 0
40082200:	12 80 00 04 	bne  40082210 <vrprintf+0x23c>
40082204:	90 0a 20 ff 	and  %o0, 0xff, %o0
40082208:	10 bf ff f8 	b  400821e8 <vrprintf+0x214>
4008220c:	b4 06 a0 01 	inc  %i2
40082210:	9f c0 40 00 	call  %g1
40082214:	d2 06 20 04 	ld  [ %i0 + 4 ], %o1
40082218:	10 bf ff f4 	b  400821e8 <vrprintf+0x214>
4008221c:	b4 06 a0 01 	inc  %i2
        case 'x':
#ifdef USE_UPPER
        case 'X':
#endif
            base = 16;
            ptr = ConversionLoop(fp, &args, issigned, base, ptr, 
40082220:	82 0a e0 ff 	and  %o3, 0xff, %g1
40082224:	c2 23 a0 5c 	st  %g1, [ %sp + 0x5c ]
40082228:	84 0b 20 ff 	and  %o4, 0xff, %g2
4008222c:	86 0a 60 ff 	and  %o1, 0xff, %g3
40082230:	82 07 bf e0 	add  %fp, -32, %g1
40082234:	c4 23 a0 70 	st  %g2, [ %sp + 0x70 ]
40082238:	c6 23 a0 74 	st  %g3, [ %sp + 0x74 ]
4008223c:	c2 23 a0 78 	st  %g1, [ %sp + 0x78 ]
40082240:	98 10 00 1a 	mov  %i2, %o4
40082244:	e0 3b a0 60 	std  %l0, [ %sp + 0x60 ]
40082248:	e4 3b a0 68 	std  %l2, [ %sp + 0x68 ]
4008224c:	9a 0b 60 01 	and  %o5, 1, %o5
40082250:	90 10 00 18 	mov  %i0, %o0
40082254:	92 07 a0 4c 	add  %fp, 0x4c, %o1
40082258:	94 10 20 00 	clr  %o2
4008225c:	10 bf ff db 	b  400821c8 <vrprintf+0x1f4>
40082260:	96 10 20 10 	mov  0x10, %o3
40082264:	81 c7 e0 08 	ret 
40082268:	81 e8 00 00 	restore 

4008226c <putchar>:
#endif
        }
    }
}

int putchar(int c) {
4008226c:	9d e3 bf 98 	save  %sp, -104, %sp
    static char buff[512];
    static int i=0;
    if (i > (sizeof(buff)-2)) {
40082270:	21 10 02 13 	sethi  %hi(0x40084c00), %l0
40082274:	c6 04 21 50 	ld  [ %l0 + 0x150 ], %g3	! 40084d50 <i.1>
        XM_write_console(&buff[0], i);
40082278:	92 10 00 03 	mov  %g3, %o1
}

int putchar(int c) {
    static char buff[512];
    static int i=0;
    if (i > (sizeof(buff)-2)) {
4008227c:	80 a0 e1 fe 	cmp  %g3, 0x1fe
40082280:	18 80 00 14 	bgu  400822d0 <putchar+0x64>
40082284:	23 10 02 12 	sethi  %hi(0x40084800), %l1
        XM_write_console(&buff[0], i);
        i=0;
    }
    buff[i++]=c;
  
    if (c == '\n' || c == '\r') {
40082288:	82 1e 20 0a 	xor  %i0, 0xa, %g1
4008228c:	80 a0 00 01 	cmp  %g0, %g1
40082290:	84 60 3f ff 	subx  %g0, -1, %g2
40082294:	82 1e 20 0d 	xor  %i0, 0xd, %g1
40082298:	80 a0 00 01 	cmp  %g0, %g1
4008229c:	82 60 3f ff 	subx  %g0, -1, %g1
    static int i=0;
    if (i > (sizeof(buff)-2)) {
        XM_write_console(&buff[0], i);
        i=0;
    }
    buff[i++]=c;
400822a0:	90 14 63 50 	or  %l1, 0x350, %o0
  
    if (c == '\n' || c == '\r') {
400822a4:	80 90 80 01 	orcc  %g2, %g1, %g0
    static int i=0;
    if (i > (sizeof(buff)-2)) {
        XM_write_console(&buff[0], i);
        i=0;
    }
    buff[i++]=c;
400822a8:	82 00 e0 01 	add  %g3, 1, %g1
  
    if (c == '\n' || c == '\r') {
400822ac:	02 80 00 07 	be  400822c8 <putchar+0x5c>
400822b0:	f0 28 c0 08 	stb  %i0, [ %g3 + %o0 ]
        if (i)
400822b4:	80 a0 60 00 	cmp  %g1, 0
400822b8:	12 80 00 0b 	bne  400822e4 <putchar+0x78>
400822bc:	92 10 00 01 	mov  %g1, %o1
            XM_write_console(&buff[0], i);
        i=0;
400822c0:	10 80 00 0c 	b  400822f0 <putchar+0x84>
400822c4:	c0 24 21 50 	clr  [ %l0 + 0x150 ]
400822c8:	10 80 00 0a 	b  400822f0 <putchar+0x84>
400822cc:	c2 24 21 50 	st  %g1, [ %l0 + 0x150 ]

int putchar(int c) {
    static char buff[512];
    static int i=0;
    if (i > (sizeof(buff)-2)) {
        XM_write_console(&buff[0], i);
400822d0:	40 00 00 c6 	call  400825e8 <XM_write_console>
400822d4:	90 14 63 50 	or  %l1, 0x350, %o0
        i=0;
400822d8:	c0 24 21 50 	clr  [ %l0 + 0x150 ]
400822dc:	10 bf ff eb 	b  40082288 <putchar+0x1c>
400822e0:	86 10 20 00 	clr  %g3
    }
    buff[i++]=c;
  
    if (c == '\n' || c == '\r') {
        if (i)
            XM_write_console(&buff[0], i);
400822e4:	40 00 00 c1 	call  400825e8 <XM_write_console>
400822e8:	c2 24 21 50 	st  %g1, [ %l0 + 0x150 ]
        i=0;
400822ec:	c0 24 21 50 	clr  [ %l0 + 0x150 ]
400822f0:	81 c7 e0 08 	ret 
400822f4:	81 e8 00 00 	restore 

400822f8 <printfputc>:
    }
    return c;
}

static int printfputc(int c, void *a){
400822f8:	9d e3 bf 98 	save  %sp, -104, %sp
    unsigned long * nc = (unsigned long*) a;
    putchar(c);
400822fc:	7f ff ff dc 	call  4008226c <putchar>
40082300:	90 10 00 18 	mov  %i0, %o0
    (*nc)++;
40082304:	c2 06 40 00 	ld  [ %i1 ], %g1
40082308:	82 00 60 01 	inc  %g1
4008230c:	c2 26 40 00 	st  %g1, [ %i1 ]
40082310:	81 c7 e0 08 	ret 
40082314:	91 e8 20 01 	restore  %g0, 1, %o0

40082318 <printf>:
    return 1;
}

int printf(char const *fmt, ...){
40082318:	9d e3 bf 88 	save  %sp, -120, %sp
    int nc=0;
    Fprint fp = {printfputc, (void*)&nc};
4008231c:	03 10 02 08 	sethi  %hi(0x40082000), %g1
40082320:	82 10 62 f8 	or  %g1, 0x2f8, %g1	! 400822f8 <printfputc>
40082324:	84 07 bf ec 	add  %fp, -20, %g2
    va_list args = 0;
    va_start(args, fmt);
    vrprintf(&fp, fmt, args);
40082328:	92 10 00 18 	mov  %i0, %o1
    putchar(c);
    (*nc)++;
    return 1;
}

int printf(char const *fmt, ...){
4008232c:	f2 27 a0 48 	st  %i1, [ %fp + 0x48 ]
40082330:	f4 27 a0 4c 	st  %i2, [ %fp + 0x4c ]
40082334:	f6 27 a0 50 	st  %i3, [ %fp + 0x50 ]
40082338:	f8 27 a0 54 	st  %i4, [ %fp + 0x54 ]
4008233c:	fa 27 a0 58 	st  %i5, [ %fp + 0x58 ]
    int nc=0;
40082340:	c0 27 bf ec 	clr  [ %fp + -20 ]
    Fprint fp = {printfputc, (void*)&nc};
40082344:	c2 27 bf f0 	st  %g1, [ %fp + -16 ]
40082348:	c4 27 bf f4 	st  %g2, [ %fp + -12 ]
    va_list args = 0;
    va_start(args, fmt);
    vrprintf(&fp, fmt, args);
4008234c:	90 07 bf f0 	add  %fp, -16, %o0
40082350:	7f ff ff 21 	call  40081fd4 <vrprintf>
40082354:	94 07 a0 48 	add  %fp, 0x48, %o2
    va_end(args);

    return nc;
}
40082358:	f0 07 bf ec 	ld  [ %fp + -20 ], %i0
4008235c:	81 c7 e0 08 	ret 
40082360:	81 e8 00 00 	restore 

40082364 <sprintfputc>:
};

static int sprintfputc(int c, void *a){
    Sdata *sd = (Sdata*) a;
	
    (*sd->s++) = c;
40082364:	c2 02 40 00 	ld  [ %o1 ], %g1
40082368:	d0 28 40 00 	stb  %o0, [ %g1 ]
4008236c:	82 00 60 01 	inc  %g1
40082370:	c2 22 40 00 	st  %g1, [ %o1 ]
    (*sd->nc)++;
40082374:	c4 02 60 04 	ld  [ %o1 + 4 ], %g2
40082378:	c2 00 80 00 	ld  [ %g2 ], %g1
4008237c:	82 00 60 01 	inc  %g1
40082380:	c2 20 80 00 	st  %g1, [ %g2 ]
40082384:	81 c3 e0 08 	retl 
40082388:	90 10 20 01 	mov  1, %o0

4008238c <sprintf>:
    return 1;
}

int sprintf(char *s, char const *fmt, ...){
4008238c:	9d e3 bf 80 	save  %sp, -128, %sp
    int nc=0;
    Sdata sd = {s, &nc};
40082390:	82 07 bf e4 	add  %fp, -28, %g1
40082394:	c2 27 bf f4 	st  %g1, [ %fp + -12 ]
    Fprint fp = {sprintfputc, (void*)&sd};
40082398:	03 10 02 08 	sethi  %hi(0x40082000), %g1
4008239c:	82 10 63 64 	or  %g1, 0x364, %g1	! 40082364 <sprintfputc>
400823a0:	84 07 bf f0 	add  %fp, -16, %g2
    return 1;
}

int sprintf(char *s, char const *fmt, ...){
    int nc=0;
    Sdata sd = {s, &nc};
400823a4:	f0 27 bf f0 	st  %i0, [ %fp + -16 ]
    (*sd->s++) = c;
    (*sd->nc)++;
    return 1;
}

int sprintf(char *s, char const *fmt, ...){
400823a8:	f4 27 a0 4c 	st  %i2, [ %fp + 0x4c ]
400823ac:	f6 27 a0 50 	st  %i3, [ %fp + 0x50 ]
400823b0:	f8 27 a0 54 	st  %i4, [ %fp + 0x54 ]
400823b4:	fa 27 a0 58 	st  %i5, [ %fp + 0x58 ]
    int nc=0;
400823b8:	c0 27 bf e4 	clr  [ %fp + -28 ]
    Sdata sd = {s, &nc};
    Fprint fp = {sprintfputc, (void*)&sd};
    va_list args = 0;
	
    va_start(args, fmt);
    vrprintf(&fp, fmt, args);
400823bc:	92 10 00 19 	mov  %i1, %o1
}

int sprintf(char *s, char const *fmt, ...){
    int nc=0;
    Sdata sd = {s, &nc};
    Fprint fp = {sprintfputc, (void*)&sd};
400823c0:	c2 27 bf e8 	st  %g1, [ %fp + -24 ]
400823c4:	c4 27 bf ec 	st  %g2, [ %fp + -20 ]
    va_list args = 0;
	
    va_start(args, fmt);
    vrprintf(&fp, fmt, args);
400823c8:	90 07 bf e8 	add  %fp, -24, %o0
400823cc:	7f ff ff 02 	call  40081fd4 <vrprintf>
400823d0:	94 07 a0 4c 	add  %fp, 0x4c, %o2
    va_end(args);
    return nc;
}
400823d4:	f0 07 bf e4 	ld  [ %fp + -28 ], %i0
400823d8:	81 c7 e0 08 	ret 
400823dc:	81 e8 00 00 	restore 

400823e0 <snprintfputc>:
};

static int snprintfputc(int c, void *a){
    Sndata *snd = (Sndata*) a;

    if (*snd->n > *snd->nc){
400823e0:	c2 02 60 04 	ld  [ %o1 + 4 ], %g1
400823e4:	c4 02 60 08 	ld  [ %o1 + 8 ], %g2
400823e8:	c6 00 40 00 	ld  [ %g1 ], %g3
400823ec:	c4 00 80 00 	ld  [ %g2 ], %g2
400823f0:	80 a0 c0 02 	cmp  %g3, %g2
400823f4:	04 80 00 0f 	ble  40082430 <snprintfputc+0x50>
400823f8:	01 00 00 00 	nop 
        if (snd->s) {
400823fc:	c2 02 40 00 	ld  [ %o1 ], %g1
40082400:	80 a0 60 00 	cmp  %g1, 0
40082404:	02 80 00 0b 	be  40082430 <snprintfputc+0x50>
40082408:	01 00 00 00 	nop 
            snd->s[(*snd->nc)] = c;
4008240c:	d0 28 40 02 	stb  %o0, [ %g1 + %g2 ]
            (*snd->nc)++;
40082410:	c4 02 60 08 	ld  [ %o1 + 8 ], %g2
40082414:	c2 00 80 00 	ld  [ %g2 ], %g1
40082418:	82 00 60 01 	inc  %g1
4008241c:	c2 20 80 00 	st  %g1, [ %g2 ]
            snd->s[(*snd->nc)]='\0';
40082420:	c6 02 60 08 	ld  [ %o1 + 8 ], %g3
40082424:	c4 02 40 00 	ld  [ %o1 ], %g2
40082428:	c2 00 c0 00 	ld  [ %g3 ], %g1
4008242c:	c0 28 80 01 	clrb  [ %g2 + %g1 ]
40082430:	81 c3 e0 08 	retl 
40082434:	90 10 20 01 	mov  1, %o0

40082438 <snprintf>:
        }
    }
    return 1;
}

int snprintf(char *s, int n, const char *fmt, ...){
40082438:	9d e3 bf 78 	save  %sp, -136, %sp
    int nc=0;
    Sndata snd = {s, &n, &nc};
4008243c:	82 07 a0 48 	add  %fp, 0x48, %g1
40082440:	c2 27 bf ec 	st  %g1, [ %fp + -20 ]
40082444:	84 07 bf dc 	add  %fp, -36, %g2
40082448:	c4 27 bf f0 	st  %g2, [ %fp + -16 ]
    Fprint fp = {snprintfputc, (void*)&snd};
4008244c:	03 10 02 08 	sethi  %hi(0x40082000), %g1
40082450:	82 10 63 e0 	or  %g1, 0x3e0, %g1	! 400823e0 <snprintfputc>
40082454:	84 07 bf e8 	add  %fp, -24, %g2
    return 1;
}

int snprintf(char *s, int n, const char *fmt, ...){
    int nc=0;
    Sndata snd = {s, &n, &nc};
40082458:	f0 27 bf e8 	st  %i0, [ %fp + -24 ]
        }
    }
    return 1;
}

int snprintf(char *s, int n, const char *fmt, ...){
4008245c:	f6 27 a0 50 	st  %i3, [ %fp + 0x50 ]
40082460:	f8 27 a0 54 	st  %i4, [ %fp + 0x54 ]
40082464:	fa 27 a0 58 	st  %i5, [ %fp + 0x58 ]
40082468:	f2 27 a0 48 	st  %i1, [ %fp + 0x48 ]
    int nc=0;
4008246c:	c0 27 bf dc 	clr  [ %fp + -36 ]
    Sndata snd = {s, &n, &nc};
    Fprint fp = {snprintfputc, (void*)&snd};
    va_list args = 0;
	
    va_start(args, fmt);
    vrprintf(&fp, fmt, args);
40082470:	92 10 00 1a 	mov  %i2, %o1
}

int snprintf(char *s, int n, const char *fmt, ...){
    int nc=0;
    Sndata snd = {s, &n, &nc};
    Fprint fp = {snprintfputc, (void*)&snd};
40082474:	c2 27 bf e0 	st  %g1, [ %fp + -32 ]
40082478:	c4 27 bf e4 	st  %g2, [ %fp + -28 ]
    va_list args = 0;
	
    va_start(args, fmt);
    vrprintf(&fp, fmt, args);
4008247c:	90 07 bf e0 	add  %fp, -32, %o0
40082480:	7f ff fe d5 	call  40081fd4 <vrprintf>
40082484:	94 07 a0 50 	add  %fp, 0x50, %o2
    va_end(args);
    return nc;
}
40082488:	f0 07 bf dc 	ld  [ %fp + -36 ], %i0
4008248c:	81 c7 e0 08 	ret 
40082490:	81 e8 00 00 	restore 

40082494 <vsprintf>:

#define MAX_VSPRINTF_SIZE 1024

int vsprintf(char *str, const char *format, va_list ap){
40082494:	9d e3 bf 78 	save  %sp, -136, %sp
    int nc=0;
    int maxNc=MAX_VSPRINTF_SIZE;
40082498:	82 10 24 00 	mov  0x400, %g1
4008249c:	c2 27 bf dc 	st  %g1, [ %fp + -36 ]

    Sndata snd = {str, &maxNc, &nc};
400824a0:	82 07 bf dc 	add  %fp, -36, %g1
400824a4:	c2 27 bf ec 	st  %g1, [ %fp + -20 ]
400824a8:	84 07 bf d8 	add  %fp, -40, %g2
400824ac:	c4 27 bf f0 	st  %g2, [ %fp + -16 ]
    Fprint fp = {snprintfputc, (void*)&snd};
400824b0:	03 10 02 08 	sethi  %hi(0x40082000), %g1
400824b4:	82 10 63 e0 	or  %g1, 0x3e0, %g1	! 400823e0 <snprintfputc>
400824b8:	84 07 bf e8 	add  %fp, -24, %g2

int vsprintf(char *str, const char *format, va_list ap){
    int nc=0;
    int maxNc=MAX_VSPRINTF_SIZE;

    Sndata snd = {str, &maxNc, &nc};
400824bc:	f0 27 bf e8 	st  %i0, [ %fp + -24 ]
}

#define MAX_VSPRINTF_SIZE 1024

int vsprintf(char *str, const char *format, va_list ap){
    int nc=0;
400824c0:	c0 27 bf d8 	clr  [ %fp + -40 ]
    int maxNc=MAX_VSPRINTF_SIZE;

    Sndata snd = {str, &maxNc, &nc};
    Fprint fp = {snprintfputc, (void*)&snd};
    vrprintf(&fp, format, ap);
400824c4:	92 10 00 19 	mov  %i1, %o1
int vsprintf(char *str, const char *format, va_list ap){
    int nc=0;
    int maxNc=MAX_VSPRINTF_SIZE;

    Sndata snd = {str, &maxNc, &nc};
    Fprint fp = {snprintfputc, (void*)&snd};
400824c8:	c2 27 bf e0 	st  %g1, [ %fp + -32 ]
400824cc:	c4 27 bf e4 	st  %g2, [ %fp + -28 ]
    vrprintf(&fp, format, ap);
400824d0:	94 10 00 1a 	mov  %i2, %o2
400824d4:	7f ff fe c0 	call  40081fd4 <vrprintf>
400824d8:	90 07 bf e0 	add  %fp, -32, %o0
    return nc;
}
400824dc:	f0 07 bf d8 	ld  [ %fp + -40 ], %i0
400824e0:	81 c7 e0 08 	ret 
400824e4:	81 e8 00 00 	restore 

400824e8 <_start>:
400824e8:	11 10 02 11 	sethi  %hi(0x40084400), %o0
400824ec:	90 12 23 40 	or  %o0, 0x340, %o0	! 40084740 <_sbss>
400824f0:	13 10 02 13 	sethi  %hi(0x40084c00), %o1
400824f4:	92 12 61 58 	or  %o1, 0x158, %o1	! 40084d58 <_eguest>
400824f8:	c0 22 00 00 	clr  [ %o0 ]
400824fc:	80 a2 00 09 	cmp  %o0, %o1
40082500:	06 bf ff fe 	bl  400824f8 <_start+0x10>
40082504:	90 02 20 04 	add  %o0, 4, %o0
40082508:	3d 10 02 11 	sethi  %hi(0x40084400), %fp
4008250c:	bc 17 a3 10 	or  %fp, 0x310, %fp	! 40084710 <_edata>
40082510:	90 10 00 01 	mov  %g1, %o0
40082514:	7f ff fb 1a 	call  4008117c <init_libxm>
40082518:	9c 27 a0 60 	sub  %fp, 0x60, %sp
4008251c:	90 10 20 18 	mov  0x18, %o0
40082520:	13 10 02 00 	sethi  %hi(0x40080000), %o1
40082524:	92 12 60 00 	mov  %o1, %o1	! 40080000 <_sguest>
40082528:	91 d0 20 f0 	ta  0xf0
4008252c:	01 00 00 00 	nop 
40082530:	7f ff fc 6b 	call  400816dc <SetupIrqs>
40082534:	9c 27 a0 60 	sub  %fp, 0x60, %sp
40082538:	7f ff fa d0 	call  40081078 <PartitionMain>
4008253c:	9c 27 a0 60 	sub  %fp, 0x60, %sp
40082540:	11 10 02 11 	sethi  %hi(0x40084400), %o0
40082544:	90 12 23 44 	or  %o0, 0x344, %o0	! 40084744 <libXmParams>
40082548:	d2 02 00 00 	ld  [ %o0 ], %o1
4008254c:	d2 02 60 1c 	ld  [ %o1 + 0x1c ], %o1
40082550:	90 10 20 00 	clr  %o0
40082554:	91 d0 20 f0 	ta  0xf0
40082558:	01 00 00 00 	nop 
4008255c:	10 80 00 00 	b  4008255c <_start+0x74>
40082560:	01 00 00 00 	nop 

40082564 <CommonTrapHandler>:
40082564:	9c 27 a0 90 	sub  %fp, 0x90, %sp
40082568:	e0 3b a0 88 	std  %l0, [ %sp + 0x88 ]
4008256c:	e4 3b a0 80 	std  %l2, [ %sp + 0x80 ]
40082570:	cc 3b a0 78 	std  %g6, [ %sp + 0x78 ]
40082574:	c8 3b a0 70 	std  %g4, [ %sp + 0x70 ]
40082578:	c4 3b a0 68 	std  %g2, [ %sp + 0x68 ]
4008257c:	c2 23 a0 64 	st  %g1, [ %sp + 0x64 ]
40082580:	8b 40 00 00 	rd  %y, %g5
40082584:	ca 23 a0 60 	st  %g5, [ %sp + 0x60 ]
40082588:	03 10 02 11 	sethi  %hi(0x40084400), %g1
4008258c:	82 10 63 50 	or  %g1, 0x350, %g1	! 40084750 <trapHandlersTab>
40082590:	85 2c e0 02 	sll  %l3, 2, %g2
40082594:	c2 00 40 02 	ld  [ %g1 + %g2 ], %g1
40082598:	80 a0 60 00 	cmp  %g1, 0
4008259c:	02 80 00 05 	be  400825b0 <CommonTrapHandler+0x4c>
400825a0:	01 00 00 00 	nop 
400825a4:	90 10 00 0e 	mov  %sp, %o0
400825a8:	9f c0 40 00 	call  %g1
400825ac:	90 02 20 60 	add  %o0, 0x60, %o0
400825b0:	c2 03 a0 60 	ld  [ %sp + 0x60 ], %g1
400825b4:	81 80 40 00 	wr  %g1, %y
400825b8:	c2 03 a0 64 	ld  [ %sp + 0x64 ], %g1
400825bc:	c4 1b a0 68 	ldd  [ %sp + 0x68 ], %g2
400825c0:	c8 1b a0 70 	ldd  [ %sp + 0x70 ], %g4
400825c4:	cc 1b a0 78 	ldd  [ %sp + 0x78 ], %g6
400825c8:	e4 1b a0 80 	ldd  [ %sp + 0x80 ], %l2
400825cc:	e0 1b a0 88 	ldd  [ %sp + 0x88 ], %l0
400825d0:	90 10 20 06 	mov  6, %o0
400825d4:	91 d0 20 f1 	ta  0xf1
400825d8:	01 00 00 00 	nop 
400825dc:	90 10 20 00 	clr  %o0	! 0 <vector-0x100>

400825e0 <endCommonTrapHandler>:
400825e0:	91 d0 20 f1 	ta  0xf1
400825e4:	01 00 00 00 	nop 

400825e8 <XM_write_console>:
    return libXmParams.partCtrlTab;
400825e8:	03 10 02 11 	sethi  %hi(0x40084400), %g1
400825ec:	c4 00 63 44 	ld  [ %g1 + 0x344 ], %g2	! 40084744 <libXmParams>

static inline struct xmPhysicalMemMap *XM_get_partition_mmap(void) {    
    return libXmParams.partMemMap;
}

static inline partitionControlTable_t *XM_params_get_PCT(void) {
400825f0:	c6 00 a0 1c 	ld  [ %g2 + 0x1c ], %g3
#include <xm_inc/linkage.h>
#include <xm_inc/hypercalls.h>
#include <xm_inc/objdir.h>
#include <xm_inc/objects/mem.h>

xm_s32_t XM_write_console(char *buffer, xm_s32_t length) {
400825f4:	82 10 00 08 	mov  %o0, %g1
400825f8:	86 08 e3 ff 	and  %g3, 0x3ff, %g3
400825fc:	94 10 00 09 	mov  %o1, %o2
40082600:	87 28 e0 0a 	sll  %g3, 0xa, %g3
40082604:	11 00 04 00 	sethi  %hi(0x100000), %o0
40082608:	90 10 c0 08 	or  %g3, %o0, %o0
4008260c:	92 10 00 01 	mov  %g1, %o1
40082610:	96 10 20 00 	clr  %o3
40082614:	82 13 c0 00 	mov  %o7, %g1
40082618:	7f ff fb 4a 	call  40081340 <XM_write_object>
4008261c:	9e 10 40 00 	mov  %g1, %o7
40082620:	01 00 00 00 	nop 

40082624 <XM_memory_copy>:
    return XM_write_object(OBJDESC_BUILD(OBJ_CLASS_CONSOLE, XM_PARTITION_SELF, 0), buffer, length, 0);
}

xm_s32_t XM_memory_copy(xmId_t dstId, xm_u32_t dstAddr, xmId_t srcId, xm_u32_t srcAddr, xm_u32_t size) {
40082624:	9d e3 bf 80 	save  %sp, -128, %sp
    xm_s32_t ret;
    union memCmd args;
    args.cpyArea.dstId=dstId;
40082628:	f0 27 bf e0 	st  %i0, [ %fp + -32 ]
    args.cpyArea.srcId=srcId;
4008262c:	f4 27 bf e8 	st  %i2, [ %fp + -24 ]
    args.cpyArea.dstAddr=dstAddr;
40082630:	f2 27 bf e4 	st  %i1, [ %fp + -28 ]
    args.cpyArea.srcAddr=srcAddr;
40082634:	f6 27 bf ec 	st  %i3, [ %fp + -20 ]
    args.cpyArea.size=size;
40082638:	f8 27 bf f0 	st  %i4, [ %fp + -16 ]
    ret = XM_ctrl_object(OBJDESC_BUILD(OBJ_CLASS_MEM, 0, 0), XM_OBJ_MEM_CPY_AREA, (void *)&args);
4008263c:	11 00 18 00 	sethi  %hi(0x600000), %o0
40082640:	92 10 20 01 	mov  1, %o1
40082644:	7f ff fb 4a 	call  4008136c <XM_ctrl_object>
40082648:	94 07 bf e0 	add  %fp, -32, %o2
    return (ret==size)?XM_OK:ret;
4008264c:	80 a2 00 1c 	cmp  %o0, %i4
40082650:	12 80 00 03 	bne  4008265c <XM_memory_copy+0x38>
40082654:	01 00 00 00 	nop 
40082658:	90 10 20 00 	clr  %o0	! 0 <vector-0x100>
4008265c:	81 c7 e0 08 	ret 
40082660:	91 e8 00 08 	restore  %g0, %o0, %o0
